

Microchip MPLAB XC8 Assembler V2.36 build 20220127204148 
                                                                                               Tue Feb  7 12:19:09 2023

Microchip MPLAB XC8 C Compiler v2.36 (Free license) build 20220127204148 Og1 
     1                           	processor	18F47Q84
     2                           	fnconf	rparam,??,?,0
     3                           	pagewidth 120
     4                           	opt	flic
     5                           	psect	idataCOMRAM,global,class=CODE,delta=1,noexec
     6                           	psect	smallconst,global,reloc=2,class=SMALLCONST,delta=1,noexec
     7                           	psect	nvCOMRAM,global,class=COMRAM,space=1,delta=1,lowdata,noexec
     8                           	psect	cinit,global,reloc=2,class=CODE,delta=1
     9                           	psect	bssCOMRAM,global,class=COMRAM,space=1,delta=1,lowdata,noexec
    10                           	psect	dataCOMRAM,global,class=COMRAM,space=1,delta=1,lowdata,noexec
    11                           	psect	bssBANK5,global,class=BANK5,space=1,delta=1,lowdata,noexec
    12                           	psect	bssBANK6,global,class=BANK6,space=1,delta=1,lowdata,noexec
    13                           	psect	bssBANK7,global,class=BANK7,space=1,delta=1,lowdata,noexec
    14                           	psect	cstackCOMRAM,global,class=COMRAM,space=1,delta=1,lowdata,noexec
    15                           	psect	text0,global,reloc=2,class=CODE,delta=1
    16                           	psect	text1,global,reloc=2,class=CODE,delta=1
    17                           	psect	text2,global,reloc=2,class=CODE,delta=1
    18                           	psect	text3,global,reloc=2,class=CODE,delta=1
    19                           	psect	text4,global,reloc=2,class=CODE,delta=1
    20                           	psect	text5,global,reloc=2,class=CODE,delta=1
    21                           	psect	text6,global,reloc=2,class=CODE,delta=1
    22                           	psect	text7,global,reloc=2,class=CODE,delta=1
    23                           	psect	text8,global,reloc=2,class=CODE,delta=1
    24                           	psect	text9,global,reloc=2,class=CODE,delta=1
    25                           	psect	text10,global,reloc=2,class=CODE,delta=1
    26                           	psect	text11,global,reloc=2,class=CODE,delta=1
    27                           	psect	text12,global,reloc=2,class=CODE,delta=1
    28                           	psect	text13,global,reloc=2,class=CODE,delta=1
    29                           	psect	text14,global,reloc=2,class=CODE,delta=1
    30                           	psect	text15,global,reloc=2,class=CODE,delta=1
    31                           	psect	text16,global,reloc=2,class=CODE,delta=1
    32                           	psect	text17,global,reloc=2,class=CODE,delta=1
    33                           	psect	text18,global,reloc=2,class=CODE,delta=1
    34                           	psect	text19,global,reloc=2,class=CODE,delta=1
    35                           	psect	text20,global,reloc=2,class=CODE,delta=1
    36                           	psect	text21,global,reloc=2,class=CODE,delta=1
    37                           	psect	text22,global,reloc=2,class=CODE,delta=1
    38                           	psect	text23,global,reloc=2,class=CODE,delta=1
    39                           	psect	text24,global,reloc=2,class=CODE,delta=1
    40                           	psect	text25,global,reloc=2,class=CODE,delta=1
    41                           	psect	text26,global,reloc=2,class=CODE,delta=1
    42                           	psect	text27,global,reloc=2,class=CODE,delta=1
    43                           	psect	text28,global,reloc=2,class=CODE,delta=1
    44                           	psect	text29,global,reloc=4,class=CODE,delta=1
    45                           	psect	text30,global,reloc=2,class=CODE,delta=1
    46                           	psect	text31,global,reloc=2,class=CODE,delta=1
    47                           	psect	text32,global,reloc=4,class=CODE,delta=1
    48                           	psect	text33,global,reloc=4,class=CODE,delta=1
    49                           	psect	text34,global,reloc=2,class=CODE,delta=1
    50                           	psect	text35,global,reloc=4,class=CODE,delta=1
    51                           	psect	text36,global,reloc=2,class=CODE,delta=1
    52                           	psect	text37,global,reloc=2,class=CODE,delta=1
    53                           	psect	text38,global,reloc=2,class=CODE,delta=1
    54                           	psect	text39,global,reloc=2,class=CODE,delta=1
    55                           	psect	text40,global,reloc=2,class=CODE,delta=1
    56                           	psect	text41,global,reloc=4,class=CODE,delta=1
    57                           	psect	text42,global,reloc=2,class=CODE,delta=1
    58                           	psect	text43,global,reloc=4,class=CODE,delta=1
    59                           	psect	text44,global,reloc=2,class=CODE,delta=1
    60                           	psect	text45,global,reloc=2,class=CODE,delta=1
    61                           	psect	text46,global,reloc=2,class=CODE,delta=1
    62                           	psect	text47,global,reloc=2,class=CODE,delta=1
    63                           	psect	text48,global,reloc=2,class=CODE,delta=1
    64                           	psect	ivt0x8,global,reloc=2,class=CODE,delta=1,noexec,keep,optim=
    65                           	psect	intsave_regs,global,class=BIGRAM,space=1,delta=1,noexec
    66                           	psect	text49,global,reloc=2,class=CODE,delta=1
    67                           	psect	rparam,global,class=COMRAM,space=1,delta=1,noexec
    68                           	psect	idloc,global,abs,ovrld,class=IDLOC,space=5,delta=1,noexec
    69                           	psect	config,global,abs,ovrld,class=CONFIG,space=4,delta=1,noexec
    70  0000                     
    71                           ; Generated 30/12/2022 GMT
    72                           ; 
    73                           ; Copyright © 2022, Microchip Technology Inc. and its subsidiaries ("Microchip")
    74                           ; All rights reserved.
    75                           ; 
    76                           ; This software is developed by Microchip Technology Inc. and its subsidiaries ("Microch
      +                          ip").
    77                           ; 
    78                           ; Redistribution and use in source and binary forms, with or without modification, are
    79                           ; permitted provided that the following conditions are met:
    80                           ; 
    81                           ;     1. Redistributions of source code must retain the above copyright notice, this lis
      +                          t of
    82                           ;        conditions and the following disclaimer.
    83                           ; 
    84                           ;     2. Redistributions in binary form must reproduce the above copyright notice, this 
      +                          list
    85                           ;        of conditions and the following disclaimer in the documentation and/or other
    86                           ;        materials provided with the distribution. Publication is not required when
    87                           ;        this file is used in an embedded application.
    88                           ; 
    89                           ;     3. Microchip's name may not be used to endorse or promote products derived from th
      +                          is
    90                           ;        software without specific prior written permission.
    91                           ; 
    92                           ; THIS SOFTWARE IS PROVIDED BY MICROCHIP "AS IS" AND ANY EXPRESS OR IMPLIED WARRANTIES,
    93                           ; INCLUDING, BUT NOT LIMITED TO, THE IMPLIED WARRANTIES OF MERCHANTABILITY AND FITNESS F
      +                          OR
    94                           ; PURPOSE ARE DISCLAIMED.  IN NO EVENT SHALL MICROCHIP BE LIABLE FOR ANY DIRECT, INDIREC
      +                          T,
    95                           ; INCIDENTAL, SPECIAL, EXEMPLARY, OR CONSEQUENTIAL DAMAGES (INCLUDING BUT NOT LIMITED TO
    96                           ; PROCUREMENT OF SUBSTITUTE GOODS OR SERVICES; LOSS OF USE, DATA OR PROFITS; OR BUSINESS
    97                           ; INTERRUPTION) HOWSOEVER CAUSED AND ON ANY THEORY OF LIABILITY, WHETHER IN CONTRACT, ST
      +                          RICT
    98                           ; LIABILITY, OR TORT (INCLUDING NEGLIGENCE OR OTHERWISE) ARISING IN ANY WAY OUT OF THE U
      +                          SE OF
    99                           ; THIS SOFTWARE, EVEN IF ADVISED OF THE POSSIBILITY OF SUCH DAMAGE.
   100                           ; 
   101                           ; 
   102                           ; Code-generator required, PIC18F47Q84 Definitions
   103                           ; 
   104                           ; SFR Addresses
   105  0000                     
   106                           	psect	idataCOMRAM
   107  0040BC                     __pidataCOMRAM:
   108                           	callstack 0
   109                           
   110                           ;initializer for _rxFifos
   111  0040BC  02                 	db	2
   112  0040BD  00                 	db	0
   113                           
   114                           	psect	smallconst
   115  003700                     __psmallconst:
   116                           	callstack 0
   117  003700  00                 	db	0
   118  003701                     _DLC_BYTES:
   119                           	callstack 0
   120  003701  00                 	db	0
   121  003702  01                 	db	1
   122  003703  02                 	db	2
   123  003704  03                 	db	3
   124  003705  04                 	db	4
   125  003706  05                 	db	5
   126  003707  06                 	db	6
   127  003708  07                 	db	7
   128  003709  08                 	db	8
   129  00370A  0C                 	db	12
   130  00370B  10                 	db	16
   131  00370C  14                 	db	20
   132  00370D  18                 	db	24
   133  00370E  20                 	db	32
   134  00370F  30                 	db	48
   135  003710  40                 	db	64
   136  003711                     __end_of_DLC_BYTES:
   137                           	callstack 0
   138  003711  50                 	db	80
   139  003712  01                 	db	1
   140  003713                     __end_of_FIFO:
   141                           	callstack 0
   142  0000                     _U1ERRIE	set	691
   143  0000                     _U1ERRIR	set	690
   144  0000                     _U1UIR	set	689
   145  0000                     _U1FIFO	set	688
   146  0000                     _U1BRGH	set	687
   147  0000                     _U1BRGL	set	686
   148  0000                     _U1CON2	set	685
   149  0000                     _U1CON1	set	684
   150  0000                     _U1CON0	set	683
   151  0000                     _U1P3H	set	682
   152  0000                     _U1P3L	set	681
   153  0000                     _U1P2H	set	680
   154  0000                     _U1P2L	set	679
   155  0000                     _U1P1H	set	678
   156  0000                     _T0CON0	set	794
   157  0000                     _C1CONTbits	set	259
   158  0000                     _C1CONU	set	258
   159  0000                     _TRISD	set	1225
   160  0000                     _TRISC	set	1224
   161  0000                     _TRISB	set	1223
   162  0000                     _LATC	set	1216
   163  0000                     _LATB	set	1215
   164  0000                     _OSCTUNE	set	176
   165  0000                     _OSCFRQ	set	177
   166  0000                     _OSCEN	set	179
   167  003713  00                 	db	0	; dummy byte at the end
   168  0000                     
   169                           	psect	nvCOMRAM
   170  000501                     __pnvCOMRAM:
   171                           	callstack 0
   172  000501                     _UART1_ErrorHandler:
   173                           	callstack 0
   174  000501                     	ds	3
   175  000504                     _UART1_OverrunErrorHandler:
   176                           	callstack 0
   177  000504                     	ds	3
   178  000507                     _UART1_FramingErrorHandler:
   179                           	callstack 0
   180  000507                     	ds	3
   181  00050A                     _UART2_ErrorHandler:
   182                           	callstack 0
   183  00050A                     	ds	3
   184  00050D                     _UART2_OverrunErrorHandler:
   185                           	callstack 0
   186  00050D                     	ds	3
   187  000510                     _UART2_FramingErrorHandler:
   188                           	callstack 0
   189  000510                     	ds	3
   190  000513                     _TMR0_InterruptHandler:
   191                           	callstack 0
   192  000513                     	ds	3
   193  000516                     _UART1_TxInterruptHandler:
   194                           	callstack 0
   195  000516                     	ds	3
   196  000519                     _UART1_RxInterruptHandler:
   197                           	callstack 0
   198  000519                     	ds	3
   199  00051C                     _UART2_TxInterruptHandler:
   200                           	callstack 0
   201  00051C                     	ds	3
   202  00051F                     _UART2_RxInterruptHandler:
   203                           	callstack 0
   204  00051F                     	ds	3
   205  000522                     _uart1TxBufferRemaining:
   206                           	callstack 0
   207  000522                     	ds	1
   208  000523                     _uart2TxBufferRemaining:
   209                           	callstack 0
   210  000523                     	ds	1
   211  0000                     _C1CONUbits	set	258
   212  0000                     _C1CONH	set	257
   213  0000                     _U1ERRIRbits	set	690
   214  0000                     _U2ERRIRbits	set	709
   215  0000                     _T0CON0bits	set	794
   216  0000                     _IVTLOCKbits	set	1113
   217  0000                     _LATBbits	set	1215
   218  0000                     _GIE	set	9911
   219  0000                     _PMD0	set	96
   220  0000                     _OSCCON1	set	173
   221  0000                     _OSCCON3	set	175
   222  0000                     _C1CONL	set	256
   223  0000                     _C1CONHbits	set	257
   224  0000                     _C1NBTCFGL	set	260
   225  0000                     _RB4PPS	set	525
   226  0000                     _CANRXPPS	set	573
   227  0000                     _U2RXPPS	set	628
   228  0000                     _ANSELA	set	1024
   229  0000                     _ANSELB	set	1032
   230  0000                     _ANSELC	set	1040
   231  0000                     _ANSELD	set	1048
   232  0000                     _LATA	set	1214
   233  0000                     _LATD	set	1217
   234  0000                     _LATE	set	1218
   235  0000                     _C1TXQCONL	set	336
   236  0000                     _PMD8	set	104
   237  0000                     _PMD7	set	103
   238  0000                     _PMD6	set	102
   239  0000                     _PMD5	set	101
   240  0000                     _PMD4	set	100
   241  0000                     _PMD3	set	99
   242  0000                     _PMD2	set	98
   243  0000                     _PMD1	set	97
   244  0000                     _TRISA	set	1222
   245  0000                     _TRISE	set	1226
   246  0000                     _INTCON0bits	set	1238
   247  0000                     _INLVLD	set	1052
   248  0000                     _SLRCOND	set	1051
   249  0000                     _ODCOND	set	1050
   250  0000                     _WPUD	set	1049
   251  0000                     _ANSELE	set	1056
   252  0000                     _INLVLC	set	1044
   253  0000                     _SLRCONC	set	1043
   254  0000                     _ODCONC	set	1042
   255  0000                     _WPUC	set	1041
   256  0000                     _INLVLB	set	1036
   257  0000                     _SLRCONB	set	1035
   258  0000                     _ODCONB	set	1034
   259  0000                     _WPUB	set	1033
   260  0000                     _IVTLOCK	set	1113
   261  0000                     _PIE3bits	set	1185
   262  0000                     _PIR3bits	set	1201
   263  0000                     _INLVLE	set	1060
   264  0000                     _SLRCONE	set	1059
   265  0000                     _ODCONE	set	1058
   266  0000                     _WPUE	set	1057
   267  0000                     _INLVLA	set	1028
   268  0000                     _SLRCONA	set	1027
   269  0000                     _ODCONA	set	1026
   270  0000                     _WPUA	set	1025
   271  0000                     _U1RXB	set	673
   272  0000                     _U1TXB	set	675
   273  0000                     _U1P1L	set	677
   274  0000                     _U2RXB	set	692
   275  0000                     _U2TXB	set	694
   276  0000                     _U2P1L	set	696
   277  0000                     _TMR0L	set	792
   278  0000                     _TMR0H	set	793
   279  0000                     _T0CON1	set	795
   280  0000                     _U1RXPPS	set	626
   281  0000                     _RC6PPS	set	535
   282  0000                     _RD6PPS	set	543
   283  0000                     _C1FIFOCON1L	set	348
   284  0000                     _C1FIFOCON2L	set	360
   285  0000                     _C1FIFOCON2T	set	363
   286  0000                     _C1FIFOCON2U	set	362
   287  0000                     _C1FIFOCON2H	set	361
   288  0000                     _C1FIFOCON1T	set	351
   289  0000                     _C1FIFOCON1U	set	350
   290  0000                     _C1FIFOCON1H	set	349
   291  0000                     _C1TDCH	set	269
   292  0000                     _C1DBTCFGT	set	267
   293  0000                     _C1DBTCFGU	set	266
   294  0000                     _C1DBTCFGH	set	265
   295  0000                     _C1DBTCFGL	set	264
   296  0000                     _C1NBTCFGT	set	263
   297  0000                     _C1NBTCFGU	set	262
   298  0000                     _C1NBTCFGH	set	261
   299  0000                     _C1FIFOBA	set	332
   300  0000                     _C1INTHbits	set	285
   301  0000                     _C1TDCU	set	270
   302  0000                     _C1INTTbits	set	287
   303  0000                     _C1TRECUbits	set	310
   304  0000                     _IPR3bits	set	869
   305  0000                     _IPR4bits	set	870
   306  0000                     _IPR8bits	set	874
   307  0000                     _PIE4bits	set	1186
   308  0000                     _PIE8bits	set	1190
   309  0000                     _IVTBASEL	set	1117
   310  0000                     _IVTBASEH	set	1118
   311  0000                     _IVTBASEU	set	1119
   312  0000                     _U2ERRIE	set	710
   313  0000                     _U2ERRIR	set	709
   314  0000                     _U2UIR	set	708
   315  0000                     _U2FIFO	set	707
   316  0000                     _U2BRGH	set	706
   317  0000                     _U2BRGL	set	705
   318  0000                     _U2CON2	set	704
   319  0000                     _U2CON1	set	703
   320  0000                     _U2CON0	set	702
   321  0000                     _U2P3H	set	701
   322  0000                     _U2P3L	set	700
   323  0000                     _U2P2H	set	699
   324  0000                     _U2P2L	set	698
   325  0000                     _U2P1H	set	697
   326                           
   327                           ; #config settings
   328                           
   329                           	psect	cinit
   330  003B8E                     __pcinit:
   331                           	callstack 0
   332  003B8E                     start_initialization:
   333                           	callstack 0
   334  003B8E                     __initialization:
   335                           	callstack 0
   336                           
   337                           ; Initialize objects allocated to COMRAM (2 bytes)
   338                           ; load TBLPTR registers with __pidataCOMRAM
   339  003B8E  0EBC               	movlw	low __pidataCOMRAM
   340  003B90  6EF6               	movwf	tblptrl,c
   341  003B92  0E40               	movlw	high __pidataCOMRAM
   342  003B94  6EF7               	movwf	tblptrh,c
   343  003B96  0E00               	movlw	low (__pidataCOMRAM shr (0+16))
   344  003B98  6EF8               	movwf	tblptru,c
   345  003B9A  0009               	tblrd		*+	;fetch initializer
   346  003B9C  0061 F3D4  F53E    	movff	tablat,__pdataCOMRAM
   347  003BA2  0009               	tblrd		*+	;fetch initializer
   348  003BA4  0061 F3D4  F53F    	movff	tablat,__pdataCOMRAM+1
   349                           
   350                           ; Clear objects allocated to BANK7 (64 bytes)
   351  003BAA  EE01  F300         	lfsr	0,__pbssBANK7
   352  003BAE  0E40               	movlw	64
   353  003BB0                     clear_0:
   354  003BB0  6AEE               	clrf	postinc0,c
   355  003BB2  06E8               	decf	wreg,f,c
   356  003BB4  E1FD               	bnz	clear_0
   357                           
   358                           ; Clear objects allocated to BANK6 (256 bytes)
   359  003BB6  EE01  F200         	lfsr	0,__pbssBANK6
   360  003BBA  EE10 F100          	lfsr	1,256
   361  003BBE                     clear_1:
   362  003BBE  6AEE               	clrf	postinc0,c
   363  003BC0  50E5               	movf	postdec1,w,c
   364  003BC2  50E1               	movf	fsr1l,w,c
   365  003BC4  E1FC               	bnz	clear_1
   366  003BC6  50E2               	movf	fsr1h,w,c
   367  003BC8  E1FA               	bnz	clear_1
   368                           
   369                           ; Clear objects allocated to BANK5 (128 bytes)
   370  003BCA  EE01  F160         	lfsr	0,__pbssBANK5
   371  003BCE  0E80               	movlw	128
   372  003BD0                     clear_2:
   373  003BD0  6AEE               	clrf	postinc0,c
   374  003BD2  06E8               	decf	wreg,f,c
   375  003BD4  E1FD               	bnz	clear_2
   376                           
   377                           ; Clear objects allocated to COMRAM (12 bytes)
   378  003BD6  EE01  F132         	lfsr	0,__pbssCOMRAM
   379  003BDA  0E0C               	movlw	12
   380  003BDC                     clear_3:
   381  003BDC  6AEE               	clrf	postinc0,c
   382  003BDE  06E8               	decf	wreg,f,c
   383  003BE0  E1FD               	bnz	clear_3
   384                           
   385                           ;
   386                           ; Setup IVTBASE
   387                           ;
   388  003BE2  0104               	movlb	4
   389  003BE4  0E08               	movlw	(ivt0x8_base shr 0)& (0+255)
   390  003BE6  6F5D               	movwf	93,b
   391  003BE8  0E00               	movlw	(ivt0x8_base shr (0+8))& (0+255)
   392  003BEA  6F5E               	movwf	94,b
   393  003BEC  0E00               	movlw	(ivt0x8_base shr (0+16))& (0+255)
   394  003BEE  6F5F               	movwf	95,b
   395  003BF0                     end_of_initialization:
   396                           	callstack 0
   397  003BF0                     __end_of__initialization:
   398                           	callstack 0
   399  003BF0  0100               	movlb	0
   400  003BF2  EFC0  F01F         	goto	_main	;jump to C main() function
   401                           
   402                           	psect	bssCOMRAM
   403  000532                     __pbssCOMRAM:
   404                           	callstack 0
   405  000532                     _uart1RxLastError:
   406                           	callstack 0
   407  000532                     	ds	1
   408  000533                     _uart1RxCount:
   409                           	callstack 0
   410  000533                     	ds	1
   411  000534                     _uart1RxTail:
   412                           	callstack 0
   413  000534                     	ds	1
   414  000535                     _uart1RxHead:
   415                           	callstack 0
   416  000535                     	ds	1
   417  000536                     _uart1TxTail:
   418                           	callstack 0
   419  000536                     	ds	1
   420  000537                     _uart1TxHead:
   421                           	callstack 0
   422  000537                     	ds	1
   423  000538                     _uart2RxLastError:
   424                           	callstack 0
   425  000538                     	ds	1
   426  000539                     _uart2RxCount:
   427                           	callstack 0
   428  000539                     	ds	1
   429  00053A                     _uart2RxTail:
   430                           	callstack 0
   431  00053A                     	ds	1
   432  00053B                     _uart2RxHead:
   433                           	callstack 0
   434  00053B                     	ds	1
   435  00053C                     _uart2TxTail:
   436                           	callstack 0
   437  00053C                     	ds	1
   438  00053D                     _uart2TxHead:
   439                           	callstack 0
   440  00053D                     	ds	1
   441                           
   442                           	psect	dataCOMRAM
   443  00053E                     __pdataCOMRAM:
   444                           	callstack 0
   445  00053E                     _rxFifos:
   446                           	callstack 0
   447  00053E                     	ds	2
   448                           
   449                           	psect	bssBANK5
   450  000560                     __pbssBANK5:
   451                           	callstack 0
   452  000560                     _uart1RxStatusBuffer:
   453                           	callstack 0
   454  000560                     	ds	64
   455  0005A0                     _uart2RxStatusBuffer:
   456                           	callstack 0
   457  0005A0                     	ds	64
   458                           
   459                           	psect	bssBANK6
   460  000600                     __pbssBANK6:
   461                           	callstack 0
   462  000600                     _uart1RxBuffer:
   463                           	callstack 0
   464  000600                     	ds	64
   465  000640                     _uart1TxBuffer:
   466                           	callstack 0
   467  000640                     	ds	64
   468  000680                     _uart2RxBuffer:
   469                           	callstack 0
   470  000680                     	ds	64
   471  0006C0                     _uart2TxBuffer:
   472                           	callstack 0
   473  0006C0                     	ds	64
   474                           
   475                           	psect	bssBANK7
   476  000700                     __pbssBANK7:
   477                           	callstack 0
   478  000700                     _rxMsgData:
   479                           	callstack 0
   480  000700                     	ds	64
   481                           
   482                           	psect	cstackCOMRAM
   483  000524                     __pcstackCOMRAM:
   484                           	callstack 0
   485  000524                     ??_tmr0_isr:
   486  000524                     
   487                           ; 1 bytes @ 0x0
   488  000524                     	ds	1
   489  000525                     ??_TMR0_ISR:
   490                           
   491                           ; 1 bytes @ 0x1
   492  000525                     	ds	2
   493  000527                     ??_UART2_tx_vect_isr:
   494                           
   495                           ; 1 bytes @ 0x3
   496  000527                     	ds	2
   497  000529                     ??_UART2_rx_vect_isr:
   498                           
   499                           ; 1 bytes @ 0x5
   500  000529                     	ds	2
   501  00052B                     ??_UART1_tx_vect_isr:
   502                           
   503                           ; 1 bytes @ 0x7
   504  00052B                     	ds	2
   505  00052D                     ??_UART1_rx_vect_isr:
   506                           
   507                           ; 1 bytes @ 0x9
   508  00052D                     	ds	2
   509  00052F                     CAN1_RX_FIFO_ResetInfo@index:
   510                           	callstack 0
   511  00052F                     CAN1_OperationModeSet@opMode:
   512                           	callstack 0
   513  00052F                     INTERRUPT_Initialize@state:
   514                           	callstack 0
   515  00052F                     TMR0_SetInterruptHandler@InterruptHandler:
   516                           	callstack 0
   517  00052F                     UART2_SetFramingErrorHandler@interruptHandler:
   518                           	callstack 0
   519  00052F                     UART2_SetOverrunErrorHandler@interruptHandler:
   520                           	callstack 0
   521  00052F                     UART2_SetErrorHandler@interruptHandler:
   522                           	callstack 0
   523  00052F                     UART2_SetRxInterruptHandler@InterruptHandler:
   524                           	callstack 0
   525  00052F                     UART2_SetTxInterruptHandler@InterruptHandler:
   526                           	callstack 0
   527  00052F                     UART1_SetFramingErrorHandler@interruptHandler:
   528                           	callstack 0
   529  00052F                     UART1_SetOverrunErrorHandler@interruptHandler:
   530                           	callstack 0
   531  00052F                     UART1_SetErrorHandler@interruptHandler:
   532                           	callstack 0
   533  00052F                     UART1_SetRxInterruptHandler@InterruptHandler:
   534                           	callstack 0
   535  00052F                     UART1_SetTxInterruptHandler@InterruptHandler:
   536                           	callstack 0
   537                           
   538                           ; 3 bytes @ 0xB
   539  00052F                     	ds	1
   540  000530                     CAN1_OperationModeSet@status:
   541                           	callstack 0
   542                           
   543                           ; 1 bytes @ 0xC
   544  000530                     	ds	1
   545  000531                     CAN1_OperationModeSet@requestMode:
   546                           	callstack 0
   547                           
   548                           ; 1 bytes @ 0xD
   549  000531                     	ds	1
   550  000532                     
   551                           ; 1 bytes @ 0xE
   552 ;;
   553 ;;Main: autosize = 0, tempsize = 0, incstack = 0, save=0
   554 ;;
   555 ;; *************** function _main *****************
   556 ;; Defined at:
   557 ;;		line 58 in file "main.c"
   558 ;; Parameters:    Size  Location     Type
   559 ;;		None
   560 ;; Auto vars:     Size  Location     Type
   561 ;;		None
   562 ;; Return value:  Size  Location     Type
   563 ;;                  1    wreg      void 
   564 ;; Registers used:
   565 ;;		wreg, fsr2l, fsr2h, status,2, status,0, prodl, prodh, cstack
   566 ;; Tracked objects:
   567 ;;		On entry : 0/0
   568 ;;		On exit  : 0/0
   569 ;;		Unchanged: 0/0
   570 ;; Data sizes:     COMRAM   BANK5   BANK6   BANK7   BANK8   BANK9  BANK10  BANK11  BANK12  BANK13  BANK14  BANK15  BANK1
      +6  BANK17  BANK18  BANK19  BANK20  BANK21  BANK22  BANK23  BANK24  BANK25  BANK26  BANK27  BANK28  BANK29  BANK30  BANK3
      +1  BANK32  BANK33  BANK34  BANK35  BANK36  BANK37  BANK38  BANK39  BANK40  BANK41  BANK42  BANK43  BANK44  BANK45  BANK4
      +6  BANK47  BANK48  BANK49  BANK50  BANK51  BANK52  BANK53  BANK54
   571 ;;      Params:         0       0       0       0       0       0       0       0       0       0       0       0       
      +0       0       0       0       0       0       0       0       0       0       0       0       0       0       0       
      +0       0       0       0       0       0       0       0       0       0       0       0       0       0       0       
      +0       0       0       0       0       0       0       0       0
   572 ;;      Locals:         0       0       0       0       0       0       0       0       0       0       0       0       
      +0       0       0       0       0       0       0       0       0       0       0       0       0       0       0       
      +0       0       0       0       0       0       0       0       0       0       0       0       0       0       0       
      +0       0       0       0       0       0       0       0       0
   573 ;;      Temps:          0       0       0       0       0       0       0       0       0       0       0       0       
      +0       0       0       0       0       0       0       0       0       0       0       0       0       0       0       
      +0       0       0       0       0       0       0       0       0       0       0       0       0       0       0       
      +0       0       0       0       0       0       0       0       0
   574 ;;      Totals:         0       0       0       0       0       0       0       0       0       0       0       0       
      +0       0       0       0       0       0       0       0       0       0       0       0       0       0       0       
      +0       0       0       0       0       0       0       0       0       0       0       0       0       0       0       
      +0       0       0       0       0       0       0       0       0
   575 ;;Total ram usage:        0 bytes
   576 ;; Hardware stack levels required when called: 8
   577 ;; This function calls:
   578 ;;		_SYSTEM_Initialize
   579 ;;		_TMR0_SetInterruptHandler
   580 ;;		_TMR0_StartTimer
   581 ;; This function is called by:
   582 ;;		Startup code after reset
   583 ;; This function uses a non-reentrant model
   584 ;;
   585                           
   586                           	psect	text0
   587  003F80                     __ptext0:
   588                           	callstack 0
   589  003F80                     _main:
   590                           	callstack 119
   591  003F80                     
   592                           ;main.c: 61:  SYSTEM_Initialize();
   593  003F80  ECD2  F01F         	call	_SYSTEM_Initialize	;wreg free
   594  003F84                     
   595                           ;main.c: 63:  TMR0_SetInterruptHandler(tmr0_isr);
   596  003F84  0E20               	movlw	low _tmr0_isr
   597  003F86  6E2F               	movwf	TMR0_SetInterruptHandler@InterruptHandler^(0+1280),c
   598  003F88  0E3B               	movlw	high _tmr0_isr
   599  003F8A  6E30               	movwf	(TMR0_SetInterruptHandler@InterruptHandler+1)^(0+1280),c
   600  003F8C  0E00               	movlw	low (_tmr0_isr shr (0+16))
   601  003F8E  6E31               	movwf	(TMR0_SetInterruptHandler@InterruptHandler+2)^(0+1280),c
   602  003F90  EC49  F020         	call	_TMR0_SetInterruptHandler	;wreg free
   603  003F94                     
   604                           ;main.c: 70:  (INTCON0bits.GIEH = 1);
   605  003F94  8ED6               	bsf	214,7,c	;volatile
   606  003F96                     
   607                           ;main.c: 73:  (INTCON0bits.GIEL = 1);
   608  003F96  8CD6               	bsf	214,6,c	;volatile
   609  003F98                     
   610                           ;main.c: 81:  TMR0_StartTimer();
   611  003F98  EC55  F020         	call	_TMR0_StartTimer	;wreg free
   612  003F9C                     l812:
   613  003F9C  EFCE  F01F         	goto	l812
   614  003FA0  EF85  F000         	goto	start
   615  003FA4                     __end_of_main:
   616                           	callstack 0
   617                           
   618 ;; *************** function _TMR0_StartTimer *****************
   619 ;; Defined at:
   620 ;;		line 88 in file "mcc_generated_files/tmr0.c"
   621 ;; Parameters:    Size  Location     Type
   622 ;;		None
   623 ;; Auto vars:     Size  Location     Type
   624 ;;		None
   625 ;; Return value:  Size  Location     Type
   626 ;;                  1    wreg      void 
   627 ;; Registers used:
   628 ;;		None
   629 ;; Tracked objects:
   630 ;;		On entry : 0/0
   631 ;;		On exit  : 0/0
   632 ;;		Unchanged: 0/0
   633 ;; Data sizes:     COMRAM   BANK5   BANK6   BANK7   BANK8   BANK9  BANK10  BANK11  BANK12  BANK13  BANK14  BANK15  BANK1
      +6  BANK17  BANK18  BANK19  BANK20  BANK21  BANK22  BANK23  BANK24  BANK25  BANK26  BANK27  BANK28  BANK29  BANK30  BANK3
      +1  BANK32  BANK33  BANK34  BANK35  BANK36  BANK37  BANK38  BANK39  BANK40  BANK41  BANK42  BANK43  BANK44  BANK45  BANK4
      +6  BANK47  BANK48  BANK49  BANK50  BANK51  BANK52  BANK53  BANK54
   634 ;;      Params:         0       0       0       0       0       0       0       0       0       0       0       0       
      +0       0       0       0       0       0       0       0       0       0       0       0       0       0       0       
      +0       0       0       0       0       0       0       0       0       0       0       0       0       0       0       
      +0       0       0       0       0       0       0       0       0
   635 ;;      Locals:         0       0       0       0       0       0       0       0       0       0       0       0       
      +0       0       0       0       0       0       0       0       0       0       0       0       0       0       0       
      +0       0       0       0       0       0       0       0       0       0       0       0       0       0       0       
      +0       0       0       0       0       0       0       0       0
   636 ;;      Temps:          0       0       0       0       0       0       0       0       0       0       0       0       
      +0       0       0       0       0       0       0       0       0       0       0       0       0       0       0       
      +0       0       0       0       0       0       0       0       0       0       0       0       0       0       0       
      +0       0       0       0       0       0       0       0       0
   637 ;;      Totals:         0       0       0       0       0       0       0       0       0       0       0       0       
      +0       0       0       0       0       0       0       0       0       0       0       0       0       0       0       
      +0       0       0       0       0       0       0       0       0       0       0       0       0       0       0       
      +0       0       0       0       0       0       0       0       0
   638 ;;Total ram usage:        0 bytes
   639 ;; Hardware stack levels used: 1
   640 ;; Hardware stack levels required when called: 4
   641 ;; This function calls:
   642 ;;		Nothing
   643 ;; This function is called by:
   644 ;;		_main
   645 ;; This function uses a non-reentrant model
   646 ;;
   647                           
   648                           	psect	text1
   649  0040AA                     __ptext1:
   650                           	callstack 0
   651  0040AA                     _TMR0_StartTimer:
   652                           	callstack 122
   653  0040AA                     
   654                           ;mcc_generated_files/tmr0.c: 91:     T0CON0bits.T0EN = 1;
   655  0040AA  0103               	movlb	3	; () banked
   656  0040AC  8F1A               	bsf	26,7,b	;volatile
   657  0040AE                     
   658                           ; BSR set to: 3
   659  0040AE  0012               	return		;funcret
   660  0040B0                     __end_of_TMR0_StartTimer:
   661                           	callstack 0
   662                           
   663 ;; *************** function _SYSTEM_Initialize *****************
   664 ;; Defined at:
   665 ;;		line 50 in file "mcc_generated_files/mcc.c"
   666 ;; Parameters:    Size  Location     Type
   667 ;;		None
   668 ;; Auto vars:     Size  Location     Type
   669 ;;		None
   670 ;; Return value:  Size  Location     Type
   671 ;;                  1    wreg      void 
   672 ;; Registers used:
   673 ;;		wreg, fsr2l, fsr2h, status,2, status,0, prodl, prodh, cstack
   674 ;; Tracked objects:
   675 ;;		On entry : 0/0
   676 ;;		On exit  : 0/0
   677 ;;		Unchanged: 0/0
   678 ;; Data sizes:     COMRAM   BANK5   BANK6   BANK7   BANK8   BANK9  BANK10  BANK11  BANK12  BANK13  BANK14  BANK15  BANK1
      +6  BANK17  BANK18  BANK19  BANK20  BANK21  BANK22  BANK23  BANK24  BANK25  BANK26  BANK27  BANK28  BANK29  BANK30  BANK3
      +1  BANK32  BANK33  BANK34  BANK35  BANK36  BANK37  BANK38  BANK39  BANK40  BANK41  BANK42  BANK43  BANK44  BANK45  BANK4
      +6  BANK47  BANK48  BANK49  BANK50  BANK51  BANK52  BANK53  BANK54
   679 ;;      Params:         0       0       0       0       0       0       0       0       0       0       0       0       
      +0       0       0       0       0       0       0       0       0       0       0       0       0       0       0       
      +0       0       0       0       0       0       0       0       0       0       0       0       0       0       0       
      +0       0       0       0       0       0       0       0       0
   680 ;;      Locals:         0       0       0       0       0       0       0       0       0       0       0       0       
      +0       0       0       0       0       0       0       0       0       0       0       0       0       0       0       
      +0       0       0       0       0       0       0       0       0       0       0       0       0       0       0       
      +0       0       0       0       0       0       0       0       0
   681 ;;      Temps:          0       0       0       0       0       0       0       0       0       0       0       0       
      +0       0       0       0       0       0       0       0       0       0       0       0       0       0       0       
      +0       0       0       0       0       0       0       0       0       0       0       0       0       0       0       
      +0       0       0       0       0       0       0       0       0
   682 ;;      Totals:         0       0       0       0       0       0       0       0       0       0       0       0       
      +0       0       0       0       0       0       0       0       0       0       0       0       0       0       0       
      +0       0       0       0       0       0       0       0       0       0       0       0       0       0       0       
      +0       0       0       0       0       0       0       0       0
   683 ;;Total ram usage:        0 bytes
   684 ;; Hardware stack levels used: 1
   685 ;; Hardware stack levels required when called: 7
   686 ;; This function calls:
   687 ;;		_CAN1_Initialize
   688 ;;		_INTERRUPT_Initialize
   689 ;;		_OSCILLATOR_Initialize
   690 ;;		_PIN_MANAGER_Initialize
   691 ;;		_PMD_Initialize
   692 ;;		_TMR0_Initialize
   693 ;;		_UART1_Initialize
   694 ;;		_UART2_Initialize
   695 ;; This function is called by:
   696 ;;		_main
   697 ;; This function uses a non-reentrant model
   698 ;;
   699                           
   700                           	psect	text2
   701  003FA4                     __ptext2:
   702                           	callstack 0
   703  003FA4                     _SYSTEM_Initialize:
   704                           	callstack 119
   705  003FA4                     
   706                           ;mcc_generated_files/mcc.c: 52:     INTERRUPT_Initialize();
   707  003FA4  ECDC  F01E         	call	_INTERRUPT_Initialize	;wreg free
   708                           
   709                           ;mcc_generated_files/mcc.c: 53:     PMD_Initialize();
   710  003FA8  ECAC  F01F         	call	_PMD_Initialize	;wreg free
   711                           
   712                           ;mcc_generated_files/mcc.c: 54:     PIN_MANAGER_Initialize();
   713  003FAC  EC00  F01D         	call	_PIN_MANAGER_Initialize	;wreg free
   714                           
   715                           ;mcc_generated_files/mcc.c: 55:     OSCILLATOR_Initialize();
   716  003FB0  ECE3  F01F         	call	_OSCILLATOR_Initialize	;wreg free
   717  003FB4                     
   718                           ;mcc_generated_files/mcc.c: 56:     TMR0_Initialize();
   719  003FB4  EC6D  F01F         	call	_TMR0_Initialize	;wreg free
   720  003FB8                     
   721                           ;mcc_generated_files/mcc.c: 57:     UART2_Initialize();
   722  003FB8  EC4E  F01C         	call	_UART2_Initialize	;wreg free
   723  003FBC                     
   724                           ;mcc_generated_files/mcc.c: 58:     UART1_Initialize();
   725  003FBC  ECA7  F01C         	call	_UART1_Initialize	;wreg free
   726  003FC0                     
   727                           ;mcc_generated_files/mcc.c: 59:     CAN1_Initialize();
   728  003FC0  ECFB  F01D         	call	_CAN1_Initialize	;wreg free
   729  003FC4  0012               	return		;funcret
   730  003FC6                     __end_of_SYSTEM_Initialize:
   731                           	callstack 0
   732                           
   733 ;; *************** function _UART2_Initialize *****************
   734 ;; Defined at:
   735 ;;		line 87 in file "mcc_generated_files/uart2.c"
   736 ;; Parameters:    Size  Location     Type
   737 ;;		None
   738 ;; Auto vars:     Size  Location     Type
   739 ;;		None
   740 ;; Return value:  Size  Location     Type
   741 ;;                  1    wreg      void 
   742 ;; Registers used:
   743 ;;		wreg, status,2, status,0, cstack
   744 ;; Tracked objects:
   745 ;;		On entry : 0/0
   746 ;;		On exit  : 0/0
   747 ;;		Unchanged: 0/0
   748 ;; Data sizes:     COMRAM   BANK5   BANK6   BANK7   BANK8   BANK9  BANK10  BANK11  BANK12  BANK13  BANK14  BANK15  BANK1
      +6  BANK17  BANK18  BANK19  BANK20  BANK21  BANK22  BANK23  BANK24  BANK25  BANK26  BANK27  BANK28  BANK29  BANK30  BANK3
      +1  BANK32  BANK33  BANK34  BANK35  BANK36  BANK37  BANK38  BANK39  BANK40  BANK41  BANK42  BANK43  BANK44  BANK45  BANK4
      +6  BANK47  BANK48  BANK49  BANK50  BANK51  BANK52  BANK53  BANK54
   749 ;;      Params:         0       0       0       0       0       0       0       0       0       0       0       0       
      +0       0       0       0       0       0       0       0       0       0       0       0       0       0       0       
      +0       0       0       0       0       0       0       0       0       0       0       0       0       0       0       
      +0       0       0       0       0       0       0       0       0
   750 ;;      Locals:         0       0       0       0       0       0       0       0       0       0       0       0       
      +0       0       0       0       0       0       0       0       0       0       0       0       0       0       0       
      +0       0       0       0       0       0       0       0       0       0       0       0       0       0       0       
      +0       0       0       0       0       0       0       0       0
   751 ;;      Temps:          0       0       0       0       0       0       0       0       0       0       0       0       
      +0       0       0       0       0       0       0       0       0       0       0       0       0       0       0       
      +0       0       0       0       0       0       0       0       0       0       0       0       0       0       0       
      +0       0       0       0       0       0       0       0       0
   752 ;;      Totals:         0       0       0       0       0       0       0       0       0       0       0       0       
      +0       0       0       0       0       0       0       0       0       0       0       0       0       0       0       
      +0       0       0       0       0       0       0       0       0       0       0       0       0       0       0       
      +0       0       0       0       0       0       0       0       0
   753 ;;Total ram usage:        0 bytes
   754 ;; Hardware stack levels used: 1
   755 ;; Hardware stack levels required when called: 5
   756 ;; This function calls:
   757 ;;		_UART2_SetErrorHandler
   758 ;;		_UART2_SetFramingErrorHandler
   759 ;;		_UART2_SetOverrunErrorHandler
   760 ;;		_UART2_SetRxInterruptHandler
   761 ;;		_UART2_SetTxInterruptHandler
   762 ;; This function is called by:
   763 ;;		_SYSTEM_Initialize
   764 ;; This function uses a non-reentrant model
   765 ;;
   766                           
   767                           	psect	text3
   768  00389C                     __ptext3:
   769                           	callstack 0
   770  00389C                     _UART2_Initialize:
   771                           	callstack 120
   772  00389C                     
   773                           ;mcc_generated_files/uart2.c: 90:     PIE8bits.U2RXIE = 0;
   774  00389C  90A6               	bcf	166,0,c	;volatile
   775  00389E                     
   776                           ;mcc_generated_files/uart2.c: 91:     UART2_SetRxInterruptHandler(UART2_Receive_ISR);
   777  00389E  0E14               	movlw	low _UART2_Receive_ISR
   778  0038A0  6E2F               	movwf	UART2_SetRxInterruptHandler@InterruptHandler^(0+1280),c
   779  0038A2  0E37               	movlw	high _UART2_Receive_ISR
   780  0038A4  6E30               	movwf	(UART2_SetRxInterruptHandler@InterruptHandler+1)^(0+1280),c
   781  0038A6  0E00               	movlw	low (_UART2_Receive_ISR shr (0+16))
   782  0038A8  6E31               	movwf	(UART2_SetRxInterruptHandler@InterruptHandler+2)^(0+1280),c
   783  0038AA  EC0A  F020         	call	_UART2_SetRxInterruptHandler	;wreg free
   784  0038AE                     
   785                           ;mcc_generated_files/uart2.c: 92:     PIE8bits.U2TXIE = 0;
   786  0038AE  92A6               	bcf	166,1,c	;volatile
   787                           
   788                           ;mcc_generated_files/uart2.c: 93:     UART2_SetTxInterruptHandler(UART2_Transmit_ISR);
   789  0038B0  0EFE               	movlw	low _UART2_Transmit_ISR
   790  0038B2  6E2F               	movwf	UART2_SetTxInterruptHandler@InterruptHandler^(0+1280),c
   791  0038B4  0E3D               	movlw	high _UART2_Transmit_ISR
   792  0038B6  6E30               	movwf	(UART2_SetTxInterruptHandler@InterruptHandler+1)^(0+1280),c
   793  0038B8  0E00               	movlw	low (_UART2_Transmit_ISR shr (0+16))
   794  0038BA  6E31               	movwf	(UART2_SetTxInterruptHandler@InterruptHandler+2)^(0+1280),c
   795  0038BC  EC03  F020         	call	_UART2_SetTxInterruptHandler	;wreg free
   796  0038C0                     
   797                           ;mcc_generated_files/uart2.c: 98:     U2P1L = 0x00;
   798  0038C0  0E00               	movlw	0
   799  0038C2  0102               	movlb	2	; () banked
   800  0038C4  6FB8               	movwf	184,b	;volatile
   801  0038C6                     
   802                           ; BSR set to: 2
   803                           ;mcc_generated_files/uart2.c: 101:     U2P1H = 0x00;
   804  0038C6  0E00               	movlw	0
   805  0038C8  6FB9               	movwf	185,b	;volatile
   806  0038CA                     
   807                           ; BSR set to: 2
   808                           ;mcc_generated_files/uart2.c: 104:     U2P2L = 0x00;
   809  0038CA  0E00               	movlw	0
   810  0038CC  6FBA               	movwf	186,b	;volatile
   811  0038CE                     
   812                           ; BSR set to: 2
   813                           ;mcc_generated_files/uart2.c: 107:     U2P2H = 0x00;
   814  0038CE  0E00               	movlw	0
   815  0038D0  6FBB               	movwf	187,b	;volatile
   816  0038D2                     
   817                           ; BSR set to: 2
   818                           ;mcc_generated_files/uart2.c: 110:     U2P3L = 0x00;
   819  0038D2  0E00               	movlw	0
   820  0038D4  6FBC               	movwf	188,b	;volatile
   821  0038D6                     
   822                           ; BSR set to: 2
   823                           ;mcc_generated_files/uart2.c: 113:     U2P3H = 0x00;
   824  0038D6  0E00               	movlw	0
   825  0038D8  6FBD               	movwf	189,b	;volatile
   826  0038DA                     
   827                           ; BSR set to: 2
   828                           ;mcc_generated_files/uart2.c: 116:     U2CON0 = 0xB0;
   829  0038DA  0EB0               	movlw	176
   830  0038DC  6FBE               	movwf	190,b	;volatile
   831  0038DE                     
   832                           ; BSR set to: 2
   833                           ;mcc_generated_files/uart2.c: 119:     U2CON1 = 0x80;
   834  0038DE  0E80               	movlw	128
   835  0038E0  6FBF               	movwf	191,b	;volatile
   836  0038E2                     
   837                           ; BSR set to: 2
   838                           ;mcc_generated_files/uart2.c: 122:     U2CON2 = 0x00;
   839  0038E2  0E00               	movlw	0
   840  0038E4  6FC0               	movwf	192,b	;volatile
   841  0038E6                     
   842                           ; BSR set to: 2
   843                           ;mcc_generated_files/uart2.c: 125:     U2BRGL = 0x08;
   844  0038E6  0E08               	movlw	8
   845  0038E8  6FC1               	movwf	193,b	;volatile
   846  0038EA                     
   847                           ; BSR set to: 2
   848                           ;mcc_generated_files/uart2.c: 128:     U2BRGH = 0x02;
   849  0038EA  0E02               	movlw	2
   850  0038EC  6FC2               	movwf	194,b	;volatile
   851  0038EE                     
   852                           ; BSR set to: 2
   853                           ;mcc_generated_files/uart2.c: 131:     U2FIFO = 0x00;
   854  0038EE  0E00               	movlw	0
   855  0038F0  6FC3               	movwf	195,b	;volatile
   856  0038F2                     
   857                           ; BSR set to: 2
   858                           ;mcc_generated_files/uart2.c: 134:     U2UIR = 0x00;
   859  0038F2  0E00               	movlw	0
   860  0038F4  6FC4               	movwf	196,b	;volatile
   861  0038F6                     
   862                           ; BSR set to: 2
   863                           ;mcc_generated_files/uart2.c: 137:     U2ERRIR = 0x00;
   864  0038F6  0E00               	movlw	0
   865  0038F8  6FC5               	movwf	197,b	;volatile
   866  0038FA                     
   867                           ; BSR set to: 2
   868                           ;mcc_generated_files/uart2.c: 140:     U2ERRIE = 0x00;
   869  0038FA  0E00               	movlw	0
   870  0038FC  6FC6               	movwf	198,b	;volatile
   871  0038FE                     
   872                           ; BSR set to: 2
   873                           ;mcc_generated_files/uart2.c: 143:     UART2_SetFramingErrorHandler(UART2_DefaultFraming
      +                          ErrorHandler);
   874  0038FE  0EC8               	movlw	low _UART2_DefaultFramingErrorHandler
   875  003900  6E2F               	movwf	UART2_SetFramingErrorHandler@interruptHandler^(0+1280),c
   876  003902  0E40               	movlw	high _UART2_DefaultFramingErrorHandler
   877  003904  6E30               	movwf	(UART2_SetFramingErrorHandler@interruptHandler+1)^(0+1280),c
   878  003906  0E00               	movlw	low (_UART2_DefaultFramingErrorHandler shr (0+16))
   879  003908  6E31               	movwf	(UART2_SetFramingErrorHandler@interruptHandler+2)^(0+1280),c
   880  00390A  EC18  F020         	call	_UART2_SetFramingErrorHandler	;wreg free
   881  00390E                     
   882                           ;mcc_generated_files/uart2.c: 144:     UART2_SetOverrunErrorHandler(UART2_DefaultOverrun
      +                          ErrorHandler);
   883  00390E  0EC6               	movlw	low _UART2_DefaultOverrunErrorHandler
   884  003910  6E2F               	movwf	UART2_SetOverrunErrorHandler@interruptHandler^(0+1280),c
   885  003912  0E40               	movlw	high _UART2_DefaultOverrunErrorHandler
   886  003914  6E30               	movwf	(UART2_SetOverrunErrorHandler@interruptHandler+1)^(0+1280),c
   887  003916  0E00               	movlw	low (_UART2_DefaultOverrunErrorHandler shr (0+16))
   888  003918  6E31               	movwf	(UART2_SetOverrunErrorHandler@interruptHandler+2)^(0+1280),c
   889  00391A  EC11  F020         	call	_UART2_SetOverrunErrorHandler	;wreg free
   890  00391E                     
   891                           ;mcc_generated_files/uart2.c: 145:     UART2_SetErrorHandler(UART2_DefaultErrorHandler);
   892  00391E  0EB0               	movlw	low _UART2_DefaultErrorHandler
   893  003920  6E2F               	movwf	UART2_SetErrorHandler@interruptHandler^(0+1280),c
   894  003922  0E40               	movlw	high _UART2_DefaultErrorHandler
   895  003924  6E30               	movwf	(UART2_SetErrorHandler@interruptHandler+1)^(0+1280),c
   896  003926  0E00               	movlw	low (_UART2_DefaultErrorHandler shr (0+16))
   897  003928  6E31               	movwf	(UART2_SetErrorHandler@interruptHandler+2)^(0+1280),c
   898  00392A  EC1F  F020         	call	_UART2_SetErrorHandler	;wreg free
   899                           
   900                           ;mcc_generated_files/uart2.c: 147:     uart2RxLastError.status = 0;
   901  00392E  0E00               	movlw	0
   902  003930  6E38               	movwf	_uart2RxLastError^(0+1280),c	;volatile
   903                           
   904                           ;mcc_generated_files/uart2.c: 150:     uart2TxHead = 0;
   905  003932  0E00               	movlw	0
   906  003934  6E3D               	movwf	_uart2TxHead^(0+1280),c	;volatile
   907                           
   908                           ;mcc_generated_files/uart2.c: 151:     uart2TxTail = 0;
   909  003936  0E00               	movlw	0
   910  003938  6E3C               	movwf	_uart2TxTail^(0+1280),c	;volatile
   911                           
   912                           ;mcc_generated_files/uart2.c: 152:     uart2TxBufferRemaining = sizeof(uart2TxBuffer);
   913  00393A  0E40               	movlw	64
   914  00393C  6E23               	movwf	_uart2TxBufferRemaining^(0+1280),c	;volatile
   915                           
   916                           ;mcc_generated_files/uart2.c: 153:     uart2RxHead = 0;
   917  00393E  0E00               	movlw	0
   918  003940  6E3B               	movwf	_uart2RxHead^(0+1280),c	;volatile
   919                           
   920                           ;mcc_generated_files/uart2.c: 154:     uart2RxTail = 0;
   921  003942  0E00               	movlw	0
   922  003944  6E3A               	movwf	_uart2RxTail^(0+1280),c	;volatile
   923                           
   924                           ;mcc_generated_files/uart2.c: 155:     uart2RxCount = 0;
   925  003946  0E00               	movlw	0
   926  003948  6E39               	movwf	_uart2RxCount^(0+1280),c	;volatile
   927  00394A                     
   928                           ;mcc_generated_files/uart2.c: 158:     PIE8bits.U2RXIE = 1;
   929  00394A  80A6               	bsf	166,0,c	;volatile
   930  00394C  0012               	return		;funcret
   931  00394E                     __end_of_UART2_Initialize:
   932                           	callstack 0
   933                           
   934 ;; *************** function _UART2_SetTxInterruptHandler *****************
   935 ;; Defined at:
   936 ;;		line 323 in file "mcc_generated_files/uart2.c"
   937 ;; Parameters:    Size  Location     Type
   938 ;;  InterruptHan    3   11[COMRAM] PTR FTN()void 
   939 ;;		 -> UART2_Transmit_ISR(1), 
   940 ;; Auto vars:     Size  Location     Type
   941 ;;		None
   942 ;; Return value:  Size  Location     Type
   943 ;;                  1    wreg      void 
   944 ;; Registers used:
   945 ;;		wreg, status,2, status,0
   946 ;; Tracked objects:
   947 ;;		On entry : 0/0
   948 ;;		On exit  : 0/0
   949 ;;		Unchanged: 0/0
   950 ;; Data sizes:     COMRAM   BANK5   BANK6   BANK7   BANK8   BANK9  BANK10  BANK11  BANK12  BANK13  BANK14  BANK15  BANK1
      +6  BANK17  BANK18  BANK19  BANK20  BANK21  BANK22  BANK23  BANK24  BANK25  BANK26  BANK27  BANK28  BANK29  BANK30  BANK3
      +1  BANK32  BANK33  BANK34  BANK35  BANK36  BANK37  BANK38  BANK39  BANK40  BANK41  BANK42  BANK43  BANK44  BANK45  BANK4
      +6  BANK47  BANK48  BANK49  BANK50  BANK51  BANK52  BANK53  BANK54
   951 ;;      Params:         3       0       0       0       0       0       0       0       0       0       0       0       
      +0       0       0       0       0       0       0       0       0       0       0       0       0       0       0       
      +0       0       0       0       0       0       0       0       0       0       0       0       0       0       0       
      +0       0       0       0       0       0       0       0       0
   952 ;;      Locals:         0       0       0       0       0       0       0       0       0       0       0       0       
      +0       0       0       0       0       0       0       0       0       0       0       0       0       0       0       
      +0       0       0       0       0       0       0       0       0       0       0       0       0       0       0       
      +0       0       0       0       0       0       0       0       0
   953 ;;      Temps:          0       0       0       0       0       0       0       0       0       0       0       0       
      +0       0       0       0       0       0       0       0       0       0       0       0       0       0       0       
      +0       0       0       0       0       0       0       0       0       0       0       0       0       0       0       
      +0       0       0       0       0       0       0       0       0
   954 ;;      Totals:         3       0       0       0       0       0       0       0       0       0       0       0       
      +0       0       0       0       0       0       0       0       0       0       0       0       0       0       0       
      +0       0       0       0       0       0       0       0       0       0       0       0       0       0       0       
      +0       0       0       0       0       0       0       0       0
   955 ;;Total ram usage:        3 bytes
   956 ;; Hardware stack levels used: 1
   957 ;; Hardware stack levels required when called: 4
   958 ;; This function calls:
   959 ;;		Nothing
   960 ;; This function is called by:
   961 ;;		_UART2_Initialize
   962 ;; This function uses a non-reentrant model
   963 ;;
   964                           
   965                           	psect	text4
   966  004006                     __ptext4:
   967                           	callstack 0
   968  004006                     _UART2_SetTxInterruptHandler:
   969                           	callstack 120
   970  004006                     
   971                           ;mcc_generated_files/uart2.c: 324:     UART2_TxInterruptHandler = InterruptHandler;
   972  004006  C52F  F51C         	movff	UART2_SetTxInterruptHandler@InterruptHandler,_UART2_TxInterruptHandler
   973  00400A  C530  F51D         	movff	UART2_SetTxInterruptHandler@InterruptHandler+1,_UART2_TxInterruptHandler+1
   974  00400E  C531  F51E         	movff	UART2_SetTxInterruptHandler@InterruptHandler+2,_UART2_TxInterruptHandler+2
   975  004012  0012               	return		;funcret
   976  004014                     __end_of_UART2_SetTxInterruptHandler:
   977                           	callstack 0
   978                           
   979 ;; *************** function _UART2_SetRxInterruptHandler *****************
   980 ;; Defined at:
   981 ;;		line 319 in file "mcc_generated_files/uart2.c"
   982 ;; Parameters:    Size  Location     Type
   983 ;;  InterruptHan    3   11[COMRAM] PTR FTN()void 
   984 ;;		 -> UART2_Receive_ISR(1), 
   985 ;; Auto vars:     Size  Location     Type
   986 ;;		None
   987 ;; Return value:  Size  Location     Type
   988 ;;                  1    wreg      void 
   989 ;; Registers used:
   990 ;;		wreg, status,2, status,0
   991 ;; Tracked objects:
   992 ;;		On entry : 0/0
   993 ;;		On exit  : 0/0
   994 ;;		Unchanged: 0/0
   995 ;; Data sizes:     COMRAM   BANK5   BANK6   BANK7   BANK8   BANK9  BANK10  BANK11  BANK12  BANK13  BANK14  BANK15  BANK1
      +6  BANK17  BANK18  BANK19  BANK20  BANK21  BANK22  BANK23  BANK24  BANK25  BANK26  BANK27  BANK28  BANK29  BANK30  BANK3
      +1  BANK32  BANK33  BANK34  BANK35  BANK36  BANK37  BANK38  BANK39  BANK40  BANK41  BANK42  BANK43  BANK44  BANK45  BANK4
      +6  BANK47  BANK48  BANK49  BANK50  BANK51  BANK52  BANK53  BANK54
   996 ;;      Params:         3       0       0       0       0       0       0       0       0       0       0       0       
      +0       0       0       0       0       0       0       0       0       0       0       0       0       0       0       
      +0       0       0       0       0       0       0       0       0       0       0       0       0       0       0       
      +0       0       0       0       0       0       0       0       0
   997 ;;      Locals:         0       0       0       0       0       0       0       0       0       0       0       0       
      +0       0       0       0       0       0       0       0       0       0       0       0       0       0       0       
      +0       0       0       0       0       0       0       0       0       0       0       0       0       0       0       
      +0       0       0       0       0       0       0       0       0
   998 ;;      Temps:          0       0       0       0       0       0       0       0       0       0       0       0       
      +0       0       0       0       0       0       0       0       0       0       0       0       0       0       0       
      +0       0       0       0       0       0       0       0       0       0       0       0       0       0       0       
      +0       0       0       0       0       0       0       0       0
   999 ;;      Totals:         3       0       0       0       0       0       0       0       0       0       0       0       
      +0       0       0       0       0       0       0       0       0       0       0       0       0       0       0       
      +0       0       0       0       0       0       0       0       0       0       0       0       0       0       0       
      +0       0       0       0       0       0       0       0       0
  1000 ;;Total ram usage:        3 bytes
  1001 ;; Hardware stack levels used: 1
  1002 ;; Hardware stack levels required when called: 4
  1003 ;; This function calls:
  1004 ;;		Nothing
  1005 ;; This function is called by:
  1006 ;;		_UART2_Initialize
  1007 ;; This function uses a non-reentrant model
  1008 ;;
  1009                           
  1010                           	psect	text5
  1011  004014                     __ptext5:
  1012                           	callstack 0
  1013  004014                     _UART2_SetRxInterruptHandler:
  1014                           	callstack 120
  1015  004014                     
  1016                           ;mcc_generated_files/uart2.c: 320:     UART2_RxInterruptHandler = InterruptHandler;
  1017  004014  C52F  F51F         	movff	UART2_SetRxInterruptHandler@InterruptHandler,_UART2_RxInterruptHandler
  1018  004018  C530  F520         	movff	UART2_SetRxInterruptHandler@InterruptHandler+1,_UART2_RxInterruptHandler+1
  1019  00401C  C531  F521         	movff	UART2_SetRxInterruptHandler@InterruptHandler+2,_UART2_RxInterruptHandler+2
  1020  004020  0012               	return		;funcret
  1021  004022                     __end_of_UART2_SetRxInterruptHandler:
  1022                           	callstack 0
  1023                           
  1024 ;; *************** function _UART2_SetOverrunErrorHandler *****************
  1025 ;; Defined at:
  1026 ;;		line 309 in file "mcc_generated_files/uart2.c"
  1027 ;; Parameters:    Size  Location     Type
  1028 ;;  interruptHan    3   11[COMRAM] PTR FTN()void 
  1029 ;;		 -> UART2_DefaultOverrunErrorHandler(1), 
  1030 ;; Auto vars:     Size  Location     Type
  1031 ;;		None
  1032 ;; Return value:  Size  Location     Type
  1033 ;;                  1    wreg      void 
  1034 ;; Registers used:
  1035 ;;		wreg, status,2, status,0
  1036 ;; Tracked objects:
  1037 ;;		On entry : 0/0
  1038 ;;		On exit  : 0/0
  1039 ;;		Unchanged: 0/0
  1040 ;; Data sizes:     COMRAM   BANK5   BANK6   BANK7   BANK8   BANK9  BANK10  BANK11  BANK12  BANK13  BANK14  BANK15  BANK1
      +6  BANK17  BANK18  BANK19  BANK20  BANK21  BANK22  BANK23  BANK24  BANK25  BANK26  BANK27  BANK28  BANK29  BANK30  BANK3
      +1  BANK32  BANK33  BANK34  BANK35  BANK36  BANK37  BANK38  BANK39  BANK40  BANK41  BANK42  BANK43  BANK44  BANK45  BANK4
      +6  BANK47  BANK48  BANK49  BANK50  BANK51  BANK52  BANK53  BANK54
  1041 ;;      Params:         3       0       0       0       0       0       0       0       0       0       0       0       
      +0       0       0       0       0       0       0       0       0       0       0       0       0       0       0       
      +0       0       0       0       0       0       0       0       0       0       0       0       0       0       0       
      +0       0       0       0       0       0       0       0       0
  1042 ;;      Locals:         0       0       0       0       0       0       0       0       0       0       0       0       
      +0       0       0       0       0       0       0       0       0       0       0       0       0       0       0       
      +0       0       0       0       0       0       0       0       0       0       0       0       0       0       0       
      +0       0       0       0       0       0       0       0       0
  1043 ;;      Temps:          0       0       0       0       0       0       0       0       0       0       0       0       
      +0       0       0       0       0       0       0       0       0       0       0       0       0       0       0       
      +0       0       0       0       0       0       0       0       0       0       0       0       0       0       0       
      +0       0       0       0       0       0       0       0       0
  1044 ;;      Totals:         3       0       0       0       0       0       0       0       0       0       0       0       
      +0       0       0       0       0       0       0       0       0       0       0       0       0       0       0       
      +0       0       0       0       0       0       0       0       0       0       0       0       0       0       0       
      +0       0       0       0       0       0       0       0       0
  1045 ;;Total ram usage:        3 bytes
  1046 ;; Hardware stack levels used: 1
  1047 ;; Hardware stack levels required when called: 4
  1048 ;; This function calls:
  1049 ;;		Nothing
  1050 ;; This function is called by:
  1051 ;;		_UART2_Initialize
  1052 ;; This function uses a non-reentrant model
  1053 ;;
  1054                           
  1055                           	psect	text6
  1056  004022                     __ptext6:
  1057                           	callstack 0
  1058  004022                     _UART2_SetOverrunErrorHandler:
  1059                           	callstack 120
  1060  004022                     
  1061                           ;mcc_generated_files/uart2.c: 310:     UART2_OverrunErrorHandler = interruptHandler;
  1062  004022  C52F  F50D         	movff	UART2_SetOverrunErrorHandler@interruptHandler,_UART2_OverrunErrorHandler
  1063  004026  C530  F50E         	movff	UART2_SetOverrunErrorHandler@interruptHandler+1,_UART2_OverrunErrorHandler+1
  1064  00402A  C531  F50F         	movff	UART2_SetOverrunErrorHandler@interruptHandler+2,_UART2_OverrunErrorHandler+2
  1065  00402E  0012               	return		;funcret
  1066  004030                     __end_of_UART2_SetOverrunErrorHandler:
  1067                           	callstack 0
  1068                           
  1069 ;; *************** function _UART2_SetFramingErrorHandler *****************
  1070 ;; Defined at:
  1071 ;;		line 305 in file "mcc_generated_files/uart2.c"
  1072 ;; Parameters:    Size  Location     Type
  1073 ;;  interruptHan    3   11[COMRAM] PTR FTN()void 
  1074 ;;		 -> UART2_DefaultFramingErrorHandler(1), 
  1075 ;; Auto vars:     Size  Location     Type
  1076 ;;		None
  1077 ;; Return value:  Size  Location     Type
  1078 ;;                  1    wreg      void 
  1079 ;; Registers used:
  1080 ;;		wreg, status,2, status,0
  1081 ;; Tracked objects:
  1082 ;;		On entry : 0/0
  1083 ;;		On exit  : 0/0
  1084 ;;		Unchanged: 0/0
  1085 ;; Data sizes:     COMRAM   BANK5   BANK6   BANK7   BANK8   BANK9  BANK10  BANK11  BANK12  BANK13  BANK14  BANK15  BANK1
      +6  BANK17  BANK18  BANK19  BANK20  BANK21  BANK22  BANK23  BANK24  BANK25  BANK26  BANK27  BANK28  BANK29  BANK30  BANK3
      +1  BANK32  BANK33  BANK34  BANK35  BANK36  BANK37  BANK38  BANK39  BANK40  BANK41  BANK42  BANK43  BANK44  BANK45  BANK4
      +6  BANK47  BANK48  BANK49  BANK50  BANK51  BANK52  BANK53  BANK54
  1086 ;;      Params:         3       0       0       0       0       0       0       0       0       0       0       0       
      +0       0       0       0       0       0       0       0       0       0       0       0       0       0       0       
      +0       0       0       0       0       0       0       0       0       0       0       0       0       0       0       
      +0       0       0       0       0       0       0       0       0
  1087 ;;      Locals:         0       0       0       0       0       0       0       0       0       0       0       0       
      +0       0       0       0       0       0       0       0       0       0       0       0       0       0       0       
      +0       0       0       0       0       0       0       0       0       0       0       0       0       0       0       
      +0       0       0       0       0       0       0       0       0
  1088 ;;      Temps:          0       0       0       0       0       0       0       0       0       0       0       0       
      +0       0       0       0       0       0       0       0       0       0       0       0       0       0       0       
      +0       0       0       0       0       0       0       0       0       0       0       0       0       0       0       
      +0       0       0       0       0       0       0       0       0
  1089 ;;      Totals:         3       0       0       0       0       0       0       0       0       0       0       0       
      +0       0       0       0       0       0       0       0       0       0       0       0       0       0       0       
      +0       0       0       0       0       0       0       0       0       0       0       0       0       0       0       
      +0       0       0       0       0       0       0       0       0
  1090 ;;Total ram usage:        3 bytes
  1091 ;; Hardware stack levels used: 1
  1092 ;; Hardware stack levels required when called: 4
  1093 ;; This function calls:
  1094 ;;		Nothing
  1095 ;; This function is called by:
  1096 ;;		_UART2_Initialize
  1097 ;; This function uses a non-reentrant model
  1098 ;;
  1099                           
  1100                           	psect	text7
  1101  004030                     __ptext7:
  1102                           	callstack 0
  1103  004030                     _UART2_SetFramingErrorHandler:
  1104                           	callstack 120
  1105  004030                     
  1106                           ;mcc_generated_files/uart2.c: 306:     UART2_FramingErrorHandler = interruptHandler;
  1107  004030  C52F  F510         	movff	UART2_SetFramingErrorHandler@interruptHandler,_UART2_FramingErrorHandler
  1108  004034  C530  F511         	movff	UART2_SetFramingErrorHandler@interruptHandler+1,_UART2_FramingErrorHandler+1
  1109  004038  C531  F512         	movff	UART2_SetFramingErrorHandler@interruptHandler+2,_UART2_FramingErrorHandler+2
  1110  00403C  0012               	return		;funcret
  1111  00403E                     __end_of_UART2_SetFramingErrorHandler:
  1112                           	callstack 0
  1113                           
  1114 ;; *************** function _UART2_SetErrorHandler *****************
  1115 ;; Defined at:
  1116 ;;		line 313 in file "mcc_generated_files/uart2.c"
  1117 ;; Parameters:    Size  Location     Type
  1118 ;;  interruptHan    3   11[COMRAM] PTR FTN()void 
  1119 ;;		 -> UART2_DefaultErrorHandler(1), 
  1120 ;; Auto vars:     Size  Location     Type
  1121 ;;		None
  1122 ;; Return value:  Size  Location     Type
  1123 ;;                  1    wreg      void 
  1124 ;; Registers used:
  1125 ;;		wreg, status,2, status,0
  1126 ;; Tracked objects:
  1127 ;;		On entry : 0/0
  1128 ;;		On exit  : 0/0
  1129 ;;		Unchanged: 0/0
  1130 ;; Data sizes:     COMRAM   BANK5   BANK6   BANK7   BANK8   BANK9  BANK10  BANK11  BANK12  BANK13  BANK14  BANK15  BANK1
      +6  BANK17  BANK18  BANK19  BANK20  BANK21  BANK22  BANK23  BANK24  BANK25  BANK26  BANK27  BANK28  BANK29  BANK30  BANK3
      +1  BANK32  BANK33  BANK34  BANK35  BANK36  BANK37  BANK38  BANK39  BANK40  BANK41  BANK42  BANK43  BANK44  BANK45  BANK4
      +6  BANK47  BANK48  BANK49  BANK50  BANK51  BANK52  BANK53  BANK54
  1131 ;;      Params:         3       0       0       0       0       0       0       0       0       0       0       0       
      +0       0       0       0       0       0       0       0       0       0       0       0       0       0       0       
      +0       0       0       0       0       0       0       0       0       0       0       0       0       0       0       
      +0       0       0       0       0       0       0       0       0
  1132 ;;      Locals:         0       0       0       0       0       0       0       0       0       0       0       0       
      +0       0       0       0       0       0       0       0       0       0       0       0       0       0       0       
      +0       0       0       0       0       0       0       0       0       0       0       0       0       0       0       
      +0       0       0       0       0       0       0       0       0
  1133 ;;      Temps:          0       0       0       0       0       0       0       0       0       0       0       0       
      +0       0       0       0       0       0       0       0       0       0       0       0       0       0       0       
      +0       0       0       0       0       0       0       0       0       0       0       0       0       0       0       
      +0       0       0       0       0       0       0       0       0
  1134 ;;      Totals:         3       0       0       0       0       0       0       0       0       0       0       0       
      +0       0       0       0       0       0       0       0       0       0       0       0       0       0       0       
      +0       0       0       0       0       0       0       0       0       0       0       0       0       0       0       
      +0       0       0       0       0       0       0       0       0
  1135 ;;Total ram usage:        3 bytes
  1136 ;; Hardware stack levels used: 1
  1137 ;; Hardware stack levels required when called: 4
  1138 ;; This function calls:
  1139 ;;		Nothing
  1140 ;; This function is called by:
  1141 ;;		_UART2_Initialize
  1142 ;; This function uses a non-reentrant model
  1143 ;;
  1144                           
  1145                           	psect	text8
  1146  00403E                     __ptext8:
  1147                           	callstack 0
  1148  00403E                     _UART2_SetErrorHandler:
  1149                           	callstack 120
  1150  00403E                     
  1151                           ;mcc_generated_files/uart2.c: 314:     UART2_ErrorHandler = interruptHandler;
  1152  00403E  C52F  F50A         	movff	UART2_SetErrorHandler@interruptHandler,_UART2_ErrorHandler
  1153  004042  C530  F50B         	movff	UART2_SetErrorHandler@interruptHandler+1,_UART2_ErrorHandler+1
  1154  004046  C531  F50C         	movff	UART2_SetErrorHandler@interruptHandler+2,_UART2_ErrorHandler+2
  1155  00404A  0012               	return		;funcret
  1156  00404C                     __end_of_UART2_SetErrorHandler:
  1157                           	callstack 0
  1158                           
  1159 ;; *************** function _UART1_Initialize *****************
  1160 ;; Defined at:
  1161 ;;		line 87 in file "mcc_generated_files/uart1.c"
  1162 ;; Parameters:    Size  Location     Type
  1163 ;;		None
  1164 ;; Auto vars:     Size  Location     Type
  1165 ;;		None
  1166 ;; Return value:  Size  Location     Type
  1167 ;;                  1    wreg      void 
  1168 ;; Registers used:
  1169 ;;		wreg, status,2, status,0, cstack
  1170 ;; Tracked objects:
  1171 ;;		On entry : 0/0
  1172 ;;		On exit  : 0/0
  1173 ;;		Unchanged: 0/0
  1174 ;; Data sizes:     COMRAM   BANK5   BANK6   BANK7   BANK8   BANK9  BANK10  BANK11  BANK12  BANK13  BANK14  BANK15  BANK1
      +6  BANK17  BANK18  BANK19  BANK20  BANK21  BANK22  BANK23  BANK24  BANK25  BANK26  BANK27  BANK28  BANK29  BANK30  BANK3
      +1  BANK32  BANK33  BANK34  BANK35  BANK36  BANK37  BANK38  BANK39  BANK40  BANK41  BANK42  BANK43  BANK44  BANK45  BANK4
      +6  BANK47  BANK48  BANK49  BANK50  BANK51  BANK52  BANK53  BANK54
  1175 ;;      Params:         0       0       0       0       0       0       0       0       0       0       0       0       
      +0       0       0       0       0       0       0       0       0       0       0       0       0       0       0       
      +0       0       0       0       0       0       0       0       0       0       0       0       0       0       0       
      +0       0       0       0       0       0       0       0       0
  1176 ;;      Locals:         0       0       0       0       0       0       0       0       0       0       0       0       
      +0       0       0       0       0       0       0       0       0       0       0       0       0       0       0       
      +0       0       0       0       0       0       0       0       0       0       0       0       0       0       0       
      +0       0       0       0       0       0       0       0       0
  1177 ;;      Temps:          0       0       0       0       0       0       0       0       0       0       0       0       
      +0       0       0       0       0       0       0       0       0       0       0       0       0       0       0       
      +0       0       0       0       0       0       0       0       0       0       0       0       0       0       0       
      +0       0       0       0       0       0       0       0       0
  1178 ;;      Totals:         0       0       0       0       0       0       0       0       0       0       0       0       
      +0       0       0       0       0       0       0       0       0       0       0       0       0       0       0       
      +0       0       0       0       0       0       0       0       0       0       0       0       0       0       0       
      +0       0       0       0       0       0       0       0       0
  1179 ;;Total ram usage:        0 bytes
  1180 ;; Hardware stack levels used: 1
  1181 ;; Hardware stack levels required when called: 5
  1182 ;; This function calls:
  1183 ;;		_UART1_SetErrorHandler
  1184 ;;		_UART1_SetFramingErrorHandler
  1185 ;;		_UART1_SetOverrunErrorHandler
  1186 ;;		_UART1_SetRxInterruptHandler
  1187 ;;		_UART1_SetTxInterruptHandler
  1188 ;; This function is called by:
  1189 ;;		_SYSTEM_Initialize
  1190 ;; This function uses a non-reentrant model
  1191 ;;
  1192                           
  1193                           	psect	text9
  1194  00394E                     __ptext9:
  1195                           	callstack 0
  1196  00394E                     _UART1_Initialize:
  1197                           	callstack 120
  1198  00394E                     
  1199                           ;mcc_generated_files/uart1.c: 90:     PIE4bits.U1RXIE = 0;
  1200  00394E  90A2               	bcf	162,0,c	;volatile
  1201  003950                     
  1202                           ;mcc_generated_files/uart1.c: 91:     UART1_SetRxInterruptHandler(UART1_Receive_ISR);
  1203  003950  0ED8               	movlw	low _UART1_Receive_ISR
  1204  003952  6E2F               	movwf	UART1_SetRxInterruptHandler@InterruptHandler^(0+1280),c
  1205  003954  0E37               	movlw	high _UART1_Receive_ISR
  1206  003956  6E30               	movwf	(UART1_SetRxInterruptHandler@InterruptHandler+1)^(0+1280),c
  1207  003958  0E00               	movlw	low (_UART1_Receive_ISR shr (0+16))
  1208  00395A  6E31               	movwf	(UART1_SetRxInterruptHandler@InterruptHandler+2)^(0+1280),c
  1209  00395C  EC2D  F020         	call	_UART1_SetRxInterruptHandler	;wreg free
  1210  003960                     
  1211                           ;mcc_generated_files/uart1.c: 92:     PIE4bits.U1TXIE = 0;
  1212  003960  92A2               	bcf	162,1,c	;volatile
  1213                           
  1214                           ;mcc_generated_files/uart1.c: 93:     UART1_SetTxInterruptHandler(UART1_Transmit_ISR);
  1215  003962  0E40               	movlw	low _UART1_Transmit_ISR
  1216  003964  6E2F               	movwf	UART1_SetTxInterruptHandler@InterruptHandler^(0+1280),c
  1217  003966  0E3E               	movlw	high _UART1_Transmit_ISR
  1218  003968  6E30               	movwf	(UART1_SetTxInterruptHandler@InterruptHandler+1)^(0+1280),c
  1219  00396A  0E00               	movlw	low (_UART1_Transmit_ISR shr (0+16))
  1220  00396C  6E31               	movwf	(UART1_SetTxInterruptHandler@InterruptHandler+2)^(0+1280),c
  1221  00396E  EC26  F020         	call	_UART1_SetTxInterruptHandler	;wreg free
  1222  003972                     
  1223                           ;mcc_generated_files/uart1.c: 98:     U1P1L = 0x00;
  1224  003972  0E00               	movlw	0
  1225  003974  0102               	movlb	2	; () banked
  1226  003976  6FA5               	movwf	165,b	;volatile
  1227  003978                     
  1228                           ; BSR set to: 2
  1229                           ;mcc_generated_files/uart1.c: 101:     U1P1H = 0x00;
  1230  003978  0E00               	movlw	0
  1231  00397A  6FA6               	movwf	166,b	;volatile
  1232  00397C                     
  1233                           ; BSR set to: 2
  1234                           ;mcc_generated_files/uart1.c: 104:     U1P2L = 0x00;
  1235  00397C  0E00               	movlw	0
  1236  00397E  6FA7               	movwf	167,b	;volatile
  1237  003980                     
  1238                           ; BSR set to: 2
  1239                           ;mcc_generated_files/uart1.c: 107:     U1P2H = 0x00;
  1240  003980  0E00               	movlw	0
  1241  003982  6FA8               	movwf	168,b	;volatile
  1242  003984                     
  1243                           ; BSR set to: 2
  1244                           ;mcc_generated_files/uart1.c: 110:     U1P3L = 0x00;
  1245  003984  0E00               	movlw	0
  1246  003986  6FA9               	movwf	169,b	;volatile
  1247  003988                     
  1248                           ; BSR set to: 2
  1249                           ;mcc_generated_files/uart1.c: 113:     U1P3H = 0x00;
  1250  003988  0E00               	movlw	0
  1251  00398A  6FAA               	movwf	170,b	;volatile
  1252  00398C                     
  1253                           ; BSR set to: 2
  1254                           ;mcc_generated_files/uart1.c: 116:     U1CON0 = 0xB0;
  1255  00398C  0EB0               	movlw	176
  1256  00398E  6FAB               	movwf	171,b	;volatile
  1257  003990                     
  1258                           ; BSR set to: 2
  1259                           ;mcc_generated_files/uart1.c: 119:     U1CON1 = 0x80;
  1260  003990  0E80               	movlw	128
  1261  003992  6FAC               	movwf	172,b	;volatile
  1262  003994                     
  1263                           ; BSR set to: 2
  1264                           ;mcc_generated_files/uart1.c: 122:     U1CON2 = 0x00;
  1265  003994  0E00               	movlw	0
  1266  003996  6FAD               	movwf	173,b	;volatile
  1267  003998                     
  1268                           ; BSR set to: 2
  1269                           ;mcc_generated_files/uart1.c: 125:     U1BRGL = 0x08;
  1270  003998  0E08               	movlw	8
  1271  00399A  6FAE               	movwf	174,b	;volatile
  1272  00399C                     
  1273                           ; BSR set to: 2
  1274                           ;mcc_generated_files/uart1.c: 128:     U1BRGH = 0x02;
  1275  00399C  0E02               	movlw	2
  1276  00399E  6FAF               	movwf	175,b	;volatile
  1277  0039A0                     
  1278                           ; BSR set to: 2
  1279                           ;mcc_generated_files/uart1.c: 131:     U1FIFO = 0x00;
  1280  0039A0  0E00               	movlw	0
  1281  0039A2  6FB0               	movwf	176,b	;volatile
  1282  0039A4                     
  1283                           ; BSR set to: 2
  1284                           ;mcc_generated_files/uart1.c: 134:     U1UIR = 0x00;
  1285  0039A4  0E00               	movlw	0
  1286  0039A6  6FB1               	movwf	177,b	;volatile
  1287  0039A8                     
  1288                           ; BSR set to: 2
  1289                           ;mcc_generated_files/uart1.c: 137:     U1ERRIR = 0x00;
  1290  0039A8  0E00               	movlw	0
  1291  0039AA  6FB2               	movwf	178,b	;volatile
  1292  0039AC                     
  1293                           ; BSR set to: 2
  1294                           ;mcc_generated_files/uart1.c: 140:     U1ERRIE = 0x00;
  1295  0039AC  0E00               	movlw	0
  1296  0039AE  6FB3               	movwf	179,b	;volatile
  1297  0039B0                     
  1298                           ; BSR set to: 2
  1299                           ;mcc_generated_files/uart1.c: 143:     UART1_SetFramingErrorHandler(UART1_DefaultFraming
      +                          ErrorHandler);
  1300  0039B0  0ECC               	movlw	low _UART1_DefaultFramingErrorHandler
  1301  0039B2  6E2F               	movwf	UART1_SetFramingErrorHandler@interruptHandler^(0+1280),c
  1302  0039B4  0E40               	movlw	high _UART1_DefaultFramingErrorHandler
  1303  0039B6  6E30               	movwf	(UART1_SetFramingErrorHandler@interruptHandler+1)^(0+1280),c
  1304  0039B8  0E00               	movlw	low (_UART1_DefaultFramingErrorHandler shr (0+16))
  1305  0039BA  6E31               	movwf	(UART1_SetFramingErrorHandler@interruptHandler+2)^(0+1280),c
  1306  0039BC  EC3B  F020         	call	_UART1_SetFramingErrorHandler	;wreg free
  1307  0039C0                     
  1308                           ;mcc_generated_files/uart1.c: 144:     UART1_SetOverrunErrorHandler(UART1_DefaultOverrun
      +                          ErrorHandler);
  1309  0039C0  0ECA               	movlw	low _UART1_DefaultOverrunErrorHandler
  1310  0039C2  6E2F               	movwf	UART1_SetOverrunErrorHandler@interruptHandler^(0+1280),c
  1311  0039C4  0E40               	movlw	high _UART1_DefaultOverrunErrorHandler
  1312  0039C6  6E30               	movwf	(UART1_SetOverrunErrorHandler@interruptHandler+1)^(0+1280),c
  1313  0039C8  0E00               	movlw	low (_UART1_DefaultOverrunErrorHandler shr (0+16))
  1314  0039CA  6E31               	movwf	(UART1_SetOverrunErrorHandler@interruptHandler+2)^(0+1280),c
  1315  0039CC  EC34  F020         	call	_UART1_SetOverrunErrorHandler	;wreg free
  1316  0039D0                     
  1317                           ;mcc_generated_files/uart1.c: 145:     UART1_SetErrorHandler(UART1_DefaultErrorHandler);
  1318  0039D0  0EB6               	movlw	low _UART1_DefaultErrorHandler
  1319  0039D2  6E2F               	movwf	UART1_SetErrorHandler@interruptHandler^(0+1280),c
  1320  0039D4  0E40               	movlw	high _UART1_DefaultErrorHandler
  1321  0039D6  6E30               	movwf	(UART1_SetErrorHandler@interruptHandler+1)^(0+1280),c
  1322  0039D8  0E00               	movlw	low (_UART1_DefaultErrorHandler shr (0+16))
  1323  0039DA  6E31               	movwf	(UART1_SetErrorHandler@interruptHandler+2)^(0+1280),c
  1324  0039DC  EC42  F020         	call	_UART1_SetErrorHandler	;wreg free
  1325                           
  1326                           ;mcc_generated_files/uart1.c: 147:     uart1RxLastError.status = 0;
  1327  0039E0  0E00               	movlw	0
  1328  0039E2  6E32               	movwf	_uart1RxLastError^(0+1280),c	;volatile
  1329                           
  1330                           ;mcc_generated_files/uart1.c: 150:     uart1TxHead = 0;
  1331  0039E4  0E00               	movlw	0
  1332  0039E6  6E37               	movwf	_uart1TxHead^(0+1280),c	;volatile
  1333                           
  1334                           ;mcc_generated_files/uart1.c: 151:     uart1TxTail = 0;
  1335  0039E8  0E00               	movlw	0
  1336  0039EA  6E36               	movwf	_uart1TxTail^(0+1280),c	;volatile
  1337                           
  1338                           ;mcc_generated_files/uart1.c: 152:     uart1TxBufferRemaining = sizeof(uart1TxBuffer);
  1339  0039EC  0E40               	movlw	64
  1340  0039EE  6E22               	movwf	_uart1TxBufferRemaining^(0+1280),c	;volatile
  1341                           
  1342                           ;mcc_generated_files/uart1.c: 153:     uart1RxHead = 0;
  1343  0039F0  0E00               	movlw	0
  1344  0039F2  6E35               	movwf	_uart1RxHead^(0+1280),c	;volatile
  1345                           
  1346                           ;mcc_generated_files/uart1.c: 154:     uart1RxTail = 0;
  1347  0039F4  0E00               	movlw	0
  1348  0039F6  6E34               	movwf	_uart1RxTail^(0+1280),c	;volatile
  1349                           
  1350                           ;mcc_generated_files/uart1.c: 155:     uart1RxCount = 0;
  1351  0039F8  0E00               	movlw	0
  1352  0039FA  6E33               	movwf	_uart1RxCount^(0+1280),c	;volatile
  1353  0039FC                     
  1354                           ;mcc_generated_files/uart1.c: 158:     PIE4bits.U1RXIE = 1;
  1355  0039FC  80A2               	bsf	162,0,c	;volatile
  1356  0039FE  0012               	return		;funcret
  1357  003A00                     __end_of_UART1_Initialize:
  1358                           	callstack 0
  1359                           
  1360 ;; *************** function _UART1_SetTxInterruptHandler *****************
  1361 ;; Defined at:
  1362 ;;		line 323 in file "mcc_generated_files/uart1.c"
  1363 ;; Parameters:    Size  Location     Type
  1364 ;;  InterruptHan    3   11[COMRAM] PTR FTN()void 
  1365 ;;		 -> UART1_Transmit_ISR(1), 
  1366 ;; Auto vars:     Size  Location     Type
  1367 ;;		None
  1368 ;; Return value:  Size  Location     Type
  1369 ;;                  1    wreg      void 
  1370 ;; Registers used:
  1371 ;;		wreg, status,2, status,0
  1372 ;; Tracked objects:
  1373 ;;		On entry : 0/0
  1374 ;;		On exit  : 0/0
  1375 ;;		Unchanged: 0/0
  1376 ;; Data sizes:     COMRAM   BANK5   BANK6   BANK7   BANK8   BANK9  BANK10  BANK11  BANK12  BANK13  BANK14  BANK15  BANK1
      +6  BANK17  BANK18  BANK19  BANK20  BANK21  BANK22  BANK23  BANK24  BANK25  BANK26  BANK27  BANK28  BANK29  BANK30  BANK3
      +1  BANK32  BANK33  BANK34  BANK35  BANK36  BANK37  BANK38  BANK39  BANK40  BANK41  BANK42  BANK43  BANK44  BANK45  BANK4
      +6  BANK47  BANK48  BANK49  BANK50  BANK51  BANK52  BANK53  BANK54
  1377 ;;      Params:         3       0       0       0       0       0       0       0       0       0       0       0       
      +0       0       0       0       0       0       0       0       0       0       0       0       0       0       0       
      +0       0       0       0       0       0       0       0       0       0       0       0       0       0       0       
      +0       0       0       0       0       0       0       0       0
  1378 ;;      Locals:         0       0       0       0       0       0       0       0       0       0       0       0       
      +0       0       0       0       0       0       0       0       0       0       0       0       0       0       0       
      +0       0       0       0       0       0       0       0       0       0       0       0       0       0       0       
      +0       0       0       0       0       0       0       0       0
  1379 ;;      Temps:          0       0       0       0       0       0       0       0       0       0       0       0       
      +0       0       0       0       0       0       0       0       0       0       0       0       0       0       0       
      +0       0       0       0       0       0       0       0       0       0       0       0       0       0       0       
      +0       0       0       0       0       0       0       0       0
  1380 ;;      Totals:         3       0       0       0       0       0       0       0       0       0       0       0       
      +0       0       0       0       0       0       0       0       0       0       0       0       0       0       0       
      +0       0       0       0       0       0       0       0       0       0       0       0       0       0       0       
      +0       0       0       0       0       0       0       0       0
  1381 ;;Total ram usage:        3 bytes
  1382 ;; Hardware stack levels used: 1
  1383 ;; Hardware stack levels required when called: 4
  1384 ;; This function calls:
  1385 ;;		Nothing
  1386 ;; This function is called by:
  1387 ;;		_UART1_Initialize
  1388 ;; This function uses a non-reentrant model
  1389 ;;
  1390                           
  1391                           	psect	text10
  1392  00404C                     __ptext10:
  1393                           	callstack 0
  1394  00404C                     _UART1_SetTxInterruptHandler:
  1395                           	callstack 120
  1396  00404C                     
  1397                           ;mcc_generated_files/uart1.c: 324:     UART1_TxInterruptHandler = InterruptHandler;
  1398  00404C  C52F  F516         	movff	UART1_SetTxInterruptHandler@InterruptHandler,_UART1_TxInterruptHandler
  1399  004050  C530  F517         	movff	UART1_SetTxInterruptHandler@InterruptHandler+1,_UART1_TxInterruptHandler+1
  1400  004054  C531  F518         	movff	UART1_SetTxInterruptHandler@InterruptHandler+2,_UART1_TxInterruptHandler+2
  1401  004058  0012               	return		;funcret
  1402  00405A                     __end_of_UART1_SetTxInterruptHandler:
  1403                           	callstack 0
  1404                           
  1405 ;; *************** function _UART1_SetRxInterruptHandler *****************
  1406 ;; Defined at:
  1407 ;;		line 319 in file "mcc_generated_files/uart1.c"
  1408 ;; Parameters:    Size  Location     Type
  1409 ;;  InterruptHan    3   11[COMRAM] PTR FTN()void 
  1410 ;;		 -> UART1_Receive_ISR(1), 
  1411 ;; Auto vars:     Size  Location     Type
  1412 ;;		None
  1413 ;; Return value:  Size  Location     Type
  1414 ;;                  1    wreg      void 
  1415 ;; Registers used:
  1416 ;;		wreg, status,2, status,0
  1417 ;; Tracked objects:
  1418 ;;		On entry : 0/0
  1419 ;;		On exit  : 0/0
  1420 ;;		Unchanged: 0/0
  1421 ;; Data sizes:     COMRAM   BANK5   BANK6   BANK7   BANK8   BANK9  BANK10  BANK11  BANK12  BANK13  BANK14  BANK15  BANK1
      +6  BANK17  BANK18  BANK19  BANK20  BANK21  BANK22  BANK23  BANK24  BANK25  BANK26  BANK27  BANK28  BANK29  BANK30  BANK3
      +1  BANK32  BANK33  BANK34  BANK35  BANK36  BANK37  BANK38  BANK39  BANK40  BANK41  BANK42  BANK43  BANK44  BANK45  BANK4
      +6  BANK47  BANK48  BANK49  BANK50  BANK51  BANK52  BANK53  BANK54
  1422 ;;      Params:         3       0       0       0       0       0       0       0       0       0       0       0       
      +0       0       0       0       0       0       0       0       0       0       0       0       0       0       0       
      +0       0       0       0       0       0       0       0       0       0       0       0       0       0       0       
      +0       0       0       0       0       0       0       0       0
  1423 ;;      Locals:         0       0       0       0       0       0       0       0       0       0       0       0       
      +0       0       0       0       0       0       0       0       0       0       0       0       0       0       0       
      +0       0       0       0       0       0       0       0       0       0       0       0       0       0       0       
      +0       0       0       0       0       0       0       0       0
  1424 ;;      Temps:          0       0       0       0       0       0       0       0       0       0       0       0       
      +0       0       0       0       0       0       0       0       0       0       0       0       0       0       0       
      +0       0       0       0       0       0       0       0       0       0       0       0       0       0       0       
      +0       0       0       0       0       0       0       0       0
  1425 ;;      Totals:         3       0       0       0       0       0       0       0       0       0       0       0       
      +0       0       0       0       0       0       0       0       0       0       0       0       0       0       0       
      +0       0       0       0       0       0       0       0       0       0       0       0       0       0       0       
      +0       0       0       0       0       0       0       0       0
  1426 ;;Total ram usage:        3 bytes
  1427 ;; Hardware stack levels used: 1
  1428 ;; Hardware stack levels required when called: 4
  1429 ;; This function calls:
  1430 ;;		Nothing
  1431 ;; This function is called by:
  1432 ;;		_UART1_Initialize
  1433 ;; This function uses a non-reentrant model
  1434 ;;
  1435                           
  1436                           	psect	text11
  1437  00405A                     __ptext11:
  1438                           	callstack 0
  1439  00405A                     _UART1_SetRxInterruptHandler:
  1440                           	callstack 120
  1441  00405A                     
  1442                           ;mcc_generated_files/uart1.c: 320:     UART1_RxInterruptHandler = InterruptHandler;
  1443  00405A  C52F  F519         	movff	UART1_SetRxInterruptHandler@InterruptHandler,_UART1_RxInterruptHandler
  1444  00405E  C530  F51A         	movff	UART1_SetRxInterruptHandler@InterruptHandler+1,_UART1_RxInterruptHandler+1
  1445  004062  C531  F51B         	movff	UART1_SetRxInterruptHandler@InterruptHandler+2,_UART1_RxInterruptHandler+2
  1446  004066  0012               	return		;funcret
  1447  004068                     __end_of_UART1_SetRxInterruptHandler:
  1448                           	callstack 0
  1449                           
  1450 ;; *************** function _UART1_SetOverrunErrorHandler *****************
  1451 ;; Defined at:
  1452 ;;		line 309 in file "mcc_generated_files/uart1.c"
  1453 ;; Parameters:    Size  Location     Type
  1454 ;;  interruptHan    3   11[COMRAM] PTR FTN()void 
  1455 ;;		 -> UART1_DefaultOverrunErrorHandler(1), 
  1456 ;; Auto vars:     Size  Location     Type
  1457 ;;		None
  1458 ;; Return value:  Size  Location     Type
  1459 ;;                  1    wreg      void 
  1460 ;; Registers used:
  1461 ;;		wreg, status,2, status,0
  1462 ;; Tracked objects:
  1463 ;;		On entry : 0/0
  1464 ;;		On exit  : 0/0
  1465 ;;		Unchanged: 0/0
  1466 ;; Data sizes:     COMRAM   BANK5   BANK6   BANK7   BANK8   BANK9  BANK10  BANK11  BANK12  BANK13  BANK14  BANK15  BANK1
      +6  BANK17  BANK18  BANK19  BANK20  BANK21  BANK22  BANK23  BANK24  BANK25  BANK26  BANK27  BANK28  BANK29  BANK30  BANK3
      +1  BANK32  BANK33  BANK34  BANK35  BANK36  BANK37  BANK38  BANK39  BANK40  BANK41  BANK42  BANK43  BANK44  BANK45  BANK4
      +6  BANK47  BANK48  BANK49  BANK50  BANK51  BANK52  BANK53  BANK54
  1467 ;;      Params:         3       0       0       0       0       0       0       0       0       0       0       0       
      +0       0       0       0       0       0       0       0       0       0       0       0       0       0       0       
      +0       0       0       0       0       0       0       0       0       0       0       0       0       0       0       
      +0       0       0       0       0       0       0       0       0
  1468 ;;      Locals:         0       0       0       0       0       0       0       0       0       0       0       0       
      +0       0       0       0       0       0       0       0       0       0       0       0       0       0       0       
      +0       0       0       0       0       0       0       0       0       0       0       0       0       0       0       
      +0       0       0       0       0       0       0       0       0
  1469 ;;      Temps:          0       0       0       0       0       0       0       0       0       0       0       0       
      +0       0       0       0       0       0       0       0       0       0       0       0       0       0       0       
      +0       0       0       0       0       0       0       0       0       0       0       0       0       0       0       
      +0       0       0       0       0       0       0       0       0
  1470 ;;      Totals:         3       0       0       0       0       0       0       0       0       0       0       0       
      +0       0       0       0       0       0       0       0       0       0       0       0       0       0       0       
      +0       0       0       0       0       0       0       0       0       0       0       0       0       0       0       
      +0       0       0       0       0       0       0       0       0
  1471 ;;Total ram usage:        3 bytes
  1472 ;; Hardware stack levels used: 1
  1473 ;; Hardware stack levels required when called: 4
  1474 ;; This function calls:
  1475 ;;		Nothing
  1476 ;; This function is called by:
  1477 ;;		_UART1_Initialize
  1478 ;; This function uses a non-reentrant model
  1479 ;;
  1480                           
  1481                           	psect	text12
  1482  004068                     __ptext12:
  1483                           	callstack 0
  1484  004068                     _UART1_SetOverrunErrorHandler:
  1485                           	callstack 120
  1486  004068                     
  1487                           ;mcc_generated_files/uart1.c: 310:     UART1_OverrunErrorHandler = interruptHandler;
  1488  004068  C52F  F504         	movff	UART1_SetOverrunErrorHandler@interruptHandler,_UART1_OverrunErrorHandler
  1489  00406C  C530  F505         	movff	UART1_SetOverrunErrorHandler@interruptHandler+1,_UART1_OverrunErrorHandler+1
  1490  004070  C531  F506         	movff	UART1_SetOverrunErrorHandler@interruptHandler+2,_UART1_OverrunErrorHandler+2
  1491  004074  0012               	return		;funcret
  1492  004076                     __end_of_UART1_SetOverrunErrorHandler:
  1493                           	callstack 0
  1494                           
  1495 ;; *************** function _UART1_SetFramingErrorHandler *****************
  1496 ;; Defined at:
  1497 ;;		line 305 in file "mcc_generated_files/uart1.c"
  1498 ;; Parameters:    Size  Location     Type
  1499 ;;  interruptHan    3   11[COMRAM] PTR FTN()void 
  1500 ;;		 -> UART1_DefaultFramingErrorHandler(1), 
  1501 ;; Auto vars:     Size  Location     Type
  1502 ;;		None
  1503 ;; Return value:  Size  Location     Type
  1504 ;;                  1    wreg      void 
  1505 ;; Registers used:
  1506 ;;		wreg, status,2, status,0
  1507 ;; Tracked objects:
  1508 ;;		On entry : 0/0
  1509 ;;		On exit  : 0/0
  1510 ;;		Unchanged: 0/0
  1511 ;; Data sizes:     COMRAM   BANK5   BANK6   BANK7   BANK8   BANK9  BANK10  BANK11  BANK12  BANK13  BANK14  BANK15  BANK1
      +6  BANK17  BANK18  BANK19  BANK20  BANK21  BANK22  BANK23  BANK24  BANK25  BANK26  BANK27  BANK28  BANK29  BANK30  BANK3
      +1  BANK32  BANK33  BANK34  BANK35  BANK36  BANK37  BANK38  BANK39  BANK40  BANK41  BANK42  BANK43  BANK44  BANK45  BANK4
      +6  BANK47  BANK48  BANK49  BANK50  BANK51  BANK52  BANK53  BANK54
  1512 ;;      Params:         3       0       0       0       0       0       0       0       0       0       0       0       
      +0       0       0       0       0       0       0       0       0       0       0       0       0       0       0       
      +0       0       0       0       0       0       0       0       0       0       0       0       0       0       0       
      +0       0       0       0       0       0       0       0       0
  1513 ;;      Locals:         0       0       0       0       0       0       0       0       0       0       0       0       
      +0       0       0       0       0       0       0       0       0       0       0       0       0       0       0       
      +0       0       0       0       0       0       0       0       0       0       0       0       0       0       0       
      +0       0       0       0       0       0       0       0       0
  1514 ;;      Temps:          0       0       0       0       0       0       0       0       0       0       0       0       
      +0       0       0       0       0       0       0       0       0       0       0       0       0       0       0       
      +0       0       0       0       0       0       0       0       0       0       0       0       0       0       0       
      +0       0       0       0       0       0       0       0       0
  1515 ;;      Totals:         3       0       0       0       0       0       0       0       0       0       0       0       
      +0       0       0       0       0       0       0       0       0       0       0       0       0       0       0       
      +0       0       0       0       0       0       0       0       0       0       0       0       0       0       0       
      +0       0       0       0       0       0       0       0       0
  1516 ;;Total ram usage:        3 bytes
  1517 ;; Hardware stack levels used: 1
  1518 ;; Hardware stack levels required when called: 4
  1519 ;; This function calls:
  1520 ;;		Nothing
  1521 ;; This function is called by:
  1522 ;;		_UART1_Initialize
  1523 ;; This function uses a non-reentrant model
  1524 ;;
  1525                           
  1526                           	psect	text13
  1527  004076                     __ptext13:
  1528                           	callstack 0
  1529  004076                     _UART1_SetFramingErrorHandler:
  1530                           	callstack 120
  1531  004076                     
  1532                           ;mcc_generated_files/uart1.c: 306:     UART1_FramingErrorHandler = interruptHandler;
  1533  004076  C52F  F507         	movff	UART1_SetFramingErrorHandler@interruptHandler,_UART1_FramingErrorHandler
  1534  00407A  C530  F508         	movff	UART1_SetFramingErrorHandler@interruptHandler+1,_UART1_FramingErrorHandler+1
  1535  00407E  C531  F509         	movff	UART1_SetFramingErrorHandler@interruptHandler+2,_UART1_FramingErrorHandler+2
  1536  004082  0012               	return		;funcret
  1537  004084                     __end_of_UART1_SetFramingErrorHandler:
  1538                           	callstack 0
  1539                           
  1540 ;; *************** function _UART1_SetErrorHandler *****************
  1541 ;; Defined at:
  1542 ;;		line 313 in file "mcc_generated_files/uart1.c"
  1543 ;; Parameters:    Size  Location     Type
  1544 ;;  interruptHan    3   11[COMRAM] PTR FTN()void 
  1545 ;;		 -> UART1_DefaultErrorHandler(1), 
  1546 ;; Auto vars:     Size  Location     Type
  1547 ;;		None
  1548 ;; Return value:  Size  Location     Type
  1549 ;;                  1    wreg      void 
  1550 ;; Registers used:
  1551 ;;		wreg, status,2, status,0
  1552 ;; Tracked objects:
  1553 ;;		On entry : 0/0
  1554 ;;		On exit  : 0/0
  1555 ;;		Unchanged: 0/0
  1556 ;; Data sizes:     COMRAM   BANK5   BANK6   BANK7   BANK8   BANK9  BANK10  BANK11  BANK12  BANK13  BANK14  BANK15  BANK1
      +6  BANK17  BANK18  BANK19  BANK20  BANK21  BANK22  BANK23  BANK24  BANK25  BANK26  BANK27  BANK28  BANK29  BANK30  BANK3
      +1  BANK32  BANK33  BANK34  BANK35  BANK36  BANK37  BANK38  BANK39  BANK40  BANK41  BANK42  BANK43  BANK44  BANK45  BANK4
      +6  BANK47  BANK48  BANK49  BANK50  BANK51  BANK52  BANK53  BANK54
  1557 ;;      Params:         3       0       0       0       0       0       0       0       0       0       0       0       
      +0       0       0       0       0       0       0       0       0       0       0       0       0       0       0       
      +0       0       0       0       0       0       0       0       0       0       0       0       0       0       0       
      +0       0       0       0       0       0       0       0       0
  1558 ;;      Locals:         0       0       0       0       0       0       0       0       0       0       0       0       
      +0       0       0       0       0       0       0       0       0       0       0       0       0       0       0       
      +0       0       0       0       0       0       0       0       0       0       0       0       0       0       0       
      +0       0       0       0       0       0       0       0       0
  1559 ;;      Temps:          0       0       0       0       0       0       0       0       0       0       0       0       
      +0       0       0       0       0       0       0       0       0       0       0       0       0       0       0       
      +0       0       0       0       0       0       0       0       0       0       0       0       0       0       0       
      +0       0       0       0       0       0       0       0       0
  1560 ;;      Totals:         3       0       0       0       0       0       0       0       0       0       0       0       
      +0       0       0       0       0       0       0       0       0       0       0       0       0       0       0       
      +0       0       0       0       0       0       0       0       0       0       0       0       0       0       0       
      +0       0       0       0       0       0       0       0       0
  1561 ;;Total ram usage:        3 bytes
  1562 ;; Hardware stack levels used: 1
  1563 ;; Hardware stack levels required when called: 4
  1564 ;; This function calls:
  1565 ;;		Nothing
  1566 ;; This function is called by:
  1567 ;;		_UART1_Initialize
  1568 ;; This function uses a non-reentrant model
  1569 ;;
  1570                           
  1571                           	psect	text14
  1572  004084                     __ptext14:
  1573                           	callstack 0
  1574  004084                     _UART1_SetErrorHandler:
  1575                           	callstack 120
  1576  004084                     
  1577                           ;mcc_generated_files/uart1.c: 314:     UART1_ErrorHandler = interruptHandler;
  1578  004084  C52F  F501         	movff	UART1_SetErrorHandler@interruptHandler,_UART1_ErrorHandler
  1579  004088  C530  F502         	movff	UART1_SetErrorHandler@interruptHandler+1,_UART1_ErrorHandler+1
  1580  00408C  C531  F503         	movff	UART1_SetErrorHandler@interruptHandler+2,_UART1_ErrorHandler+2
  1581  004090  0012               	return		;funcret
  1582  004092                     __end_of_UART1_SetErrorHandler:
  1583                           	callstack 0
  1584                           
  1585 ;; *************** function _TMR0_Initialize *****************
  1586 ;; Defined at:
  1587 ;;		line 62 in file "mcc_generated_files/tmr0.c"
  1588 ;; Parameters:    Size  Location     Type
  1589 ;;		None
  1590 ;; Auto vars:     Size  Location     Type
  1591 ;;		None
  1592 ;; Return value:  Size  Location     Type
  1593 ;;                  1    wreg      void 
  1594 ;; Registers used:
  1595 ;;		wreg, status,2, status,0, cstack
  1596 ;; Tracked objects:
  1597 ;;		On entry : 0/0
  1598 ;;		On exit  : 0/0
  1599 ;;		Unchanged: 0/0
  1600 ;; Data sizes:     COMRAM   BANK5   BANK6   BANK7   BANK8   BANK9  BANK10  BANK11  BANK12  BANK13  BANK14  BANK15  BANK1
      +6  BANK17  BANK18  BANK19  BANK20  BANK21  BANK22  BANK23  BANK24  BANK25  BANK26  BANK27  BANK28  BANK29  BANK30  BANK3
      +1  BANK32  BANK33  BANK34  BANK35  BANK36  BANK37  BANK38  BANK39  BANK40  BANK41  BANK42  BANK43  BANK44  BANK45  BANK4
      +6  BANK47  BANK48  BANK49  BANK50  BANK51  BANK52  BANK53  BANK54
  1601 ;;      Params:         0       0       0       0       0       0       0       0       0       0       0       0       
      +0       0       0       0       0       0       0       0       0       0       0       0       0       0       0       
      +0       0       0       0       0       0       0       0       0       0       0       0       0       0       0       
      +0       0       0       0       0       0       0       0       0
  1602 ;;      Locals:         0       0       0       0       0       0       0       0       0       0       0       0       
      +0       0       0       0       0       0       0       0       0       0       0       0       0       0       0       
      +0       0       0       0       0       0       0       0       0       0       0       0       0       0       0       
      +0       0       0       0       0       0       0       0       0
  1603 ;;      Temps:          0       0       0       0       0       0       0       0       0       0       0       0       
      +0       0       0       0       0       0       0       0       0       0       0       0       0       0       0       
      +0       0       0       0       0       0       0       0       0       0       0       0       0       0       0       
      +0       0       0       0       0       0       0       0       0
  1604 ;;      Totals:         0       0       0       0       0       0       0       0       0       0       0       0       
      +0       0       0       0       0       0       0       0       0       0       0       0       0       0       0       
      +0       0       0       0       0       0       0       0       0       0       0       0       0       0       0       
      +0       0       0       0       0       0       0       0       0
  1605 ;;Total ram usage:        0 bytes
  1606 ;; Hardware stack levels used: 1
  1607 ;; Hardware stack levels required when called: 5
  1608 ;; This function calls:
  1609 ;;		_TMR0_SetInterruptHandler
  1610 ;; This function is called by:
  1611 ;;		_SYSTEM_Initialize
  1612 ;; This function uses a non-reentrant model
  1613 ;;
  1614                           
  1615                           	psect	text15
  1616  003EDA                     __ptext15:
  1617                           	callstack 0
  1618  003EDA                     _TMR0_Initialize:
  1619                           	callstack 120
  1620  003EDA                     
  1621                           ;mcc_generated_files/tmr0.c: 67:     T0CON1 = 0x4F;
  1622  003EDA  0E4F               	movlw	79
  1623  003EDC  0103               	movlb	3	; () banked
  1624  003EDE  6F1B               	movwf	27,b	;volatile
  1625                           
  1626                           ;mcc_generated_files/tmr0.c: 70:     TMR0H = 0x98;
  1627  003EE0  0E98               	movlw	152
  1628  003EE2  6F19               	movwf	25,b	;volatile
  1629                           
  1630                           ;mcc_generated_files/tmr0.c: 73:     TMR0L = 0x00;
  1631  003EE4  0E00               	movlw	0
  1632  003EE6  6F18               	movwf	24,b	;volatile
  1633  003EE8                     
  1634                           ; BSR set to: 3
  1635                           ;mcc_generated_files/tmr0.c: 76:     PIR3bits.TMR0IF = 0;
  1636  003EE8  9EB1               	bcf	177,7,c	;volatile
  1637  003EEA                     
  1638                           ; BSR set to: 3
  1639                           ;mcc_generated_files/tmr0.c: 79:     PIE3bits.TMR0IE = 1;
  1640  003EEA  8EA1               	bsf	161,7,c	;volatile
  1641  003EEC                     
  1642                           ; BSR set to: 3
  1643                           ;mcc_generated_files/tmr0.c: 82:     TMR0_SetInterruptHandler(TMR0_DefaultInterruptHandl
      +                          er);
  1644  003EEC  0EC0               	movlw	low _TMR0_DefaultInterruptHandler
  1645  003EEE  6E2F               	movwf	TMR0_SetInterruptHandler@InterruptHandler^(0+1280),c
  1646  003EF0  0E40               	movlw	high _TMR0_DefaultInterruptHandler
  1647  003EF2  6E30               	movwf	(TMR0_SetInterruptHandler@InterruptHandler+1)^(0+1280),c
  1648  003EF4  0E00               	movlw	low (_TMR0_DefaultInterruptHandler shr (0+16))
  1649  003EF6  6E31               	movwf	(TMR0_SetInterruptHandler@InterruptHandler+2)^(0+1280),c
  1650  003EF8  EC49  F020         	call	_TMR0_SetInterruptHandler	;wreg free
  1651  003EFC                     
  1652                           ;mcc_generated_files/tmr0.c: 85:     T0CON0 = 0x80;
  1653  003EFC  0E80               	movlw	128
  1654  003EFE  0103               	movlb	3	; () banked
  1655  003F00  6F1A               	movwf	26,b	;volatile
  1656  003F02                     
  1657                           ; BSR set to: 3
  1658  003F02  0012               	return		;funcret
  1659  003F04                     __end_of_TMR0_Initialize:
  1660                           	callstack 0
  1661                           
  1662 ;; *************** function _TMR0_SetInterruptHandler *****************
  1663 ;; Defined at:
  1664 ;;		line 135 in file "mcc_generated_files/tmr0.c"
  1665 ;; Parameters:    Size  Location     Type
  1666 ;;  InterruptHan    3   11[COMRAM] PTR FTN()void 
  1667 ;;		 -> tmr0_isr(1), TMR0_DefaultInterruptHandler(1), 
  1668 ;; Auto vars:     Size  Location     Type
  1669 ;;		None
  1670 ;; Return value:  Size  Location     Type
  1671 ;;                  1    wreg      void 
  1672 ;; Registers used:
  1673 ;;		wreg, status,2, status,0
  1674 ;; Tracked objects:
  1675 ;;		On entry : 0/0
  1676 ;;		On exit  : 0/0
  1677 ;;		Unchanged: 0/0
  1678 ;; Data sizes:     COMRAM   BANK5   BANK6   BANK7   BANK8   BANK9  BANK10  BANK11  BANK12  BANK13  BANK14  BANK15  BANK1
      +6  BANK17  BANK18  BANK19  BANK20  BANK21  BANK22  BANK23  BANK24  BANK25  BANK26  BANK27  BANK28  BANK29  BANK30  BANK3
      +1  BANK32  BANK33  BANK34  BANK35  BANK36  BANK37  BANK38  BANK39  BANK40  BANK41  BANK42  BANK43  BANK44  BANK45  BANK4
      +6  BANK47  BANK48  BANK49  BANK50  BANK51  BANK52  BANK53  BANK54
  1679 ;;      Params:         3       0       0       0       0       0       0       0       0       0       0       0       
      +0       0       0       0       0       0       0       0       0       0       0       0       0       0       0       
      +0       0       0       0       0       0       0       0       0       0       0       0       0       0       0       
      +0       0       0       0       0       0       0       0       0
  1680 ;;      Locals:         0       0       0       0       0       0       0       0       0       0       0       0       
      +0       0       0       0       0       0       0       0       0       0       0       0       0       0       0       
      +0       0       0       0       0       0       0       0       0       0       0       0       0       0       0       
      +0       0       0       0       0       0       0       0       0
  1681 ;;      Temps:          0       0       0       0       0       0       0       0       0       0       0       0       
      +0       0       0       0       0       0       0       0       0       0       0       0       0       0       0       
      +0       0       0       0       0       0       0       0       0       0       0       0       0       0       0       
      +0       0       0       0       0       0       0       0       0
  1682 ;;      Totals:         3       0       0       0       0       0       0       0       0       0       0       0       
      +0       0       0       0       0       0       0       0       0       0       0       0       0       0       0       
      +0       0       0       0       0       0       0       0       0       0       0       0       0       0       0       
      +0       0       0       0       0       0       0       0       0
  1683 ;;Total ram usage:        3 bytes
  1684 ;; Hardware stack levels used: 1
  1685 ;; Hardware stack levels required when called: 4
  1686 ;; This function calls:
  1687 ;;		Nothing
  1688 ;; This function is called by:
  1689 ;;		_TMR0_Initialize
  1690 ;;		_main
  1691 ;; This function uses a non-reentrant model
  1692 ;;
  1693                           
  1694                           	psect	text16
  1695  004092                     __ptext16:
  1696                           	callstack 0
  1697  004092                     _TMR0_SetInterruptHandler:
  1698                           	callstack 122
  1699  004092                     
  1700                           ;mcc_generated_files/tmr0.c: 136:     TMR0_InterruptHandler = InterruptHandler;
  1701  004092  C52F  F513         	movff	TMR0_SetInterruptHandler@InterruptHandler,_TMR0_InterruptHandler
  1702  004096  C530  F514         	movff	TMR0_SetInterruptHandler@InterruptHandler+1,_TMR0_InterruptHandler+1
  1703  00409A  C531  F515         	movff	TMR0_SetInterruptHandler@InterruptHandler+2,_TMR0_InterruptHandler+2
  1704  00409E  0012               	return		;funcret
  1705  0040A0                     __end_of_TMR0_SetInterruptHandler:
  1706                           	callstack 0
  1707                           
  1708 ;; *************** function _PMD_Initialize *****************
  1709 ;; Defined at:
  1710 ;;		line 76 in file "mcc_generated_files/mcc.c"
  1711 ;; Parameters:    Size  Location     Type
  1712 ;;		None
  1713 ;; Auto vars:     Size  Location     Type
  1714 ;;		None
  1715 ;; Return value:  Size  Location     Type
  1716 ;;                  1    wreg      void 
  1717 ;; Registers used:
  1718 ;;		wreg, status,2
  1719 ;; Tracked objects:
  1720 ;;		On entry : 0/0
  1721 ;;		On exit  : 0/0
  1722 ;;		Unchanged: 0/0
  1723 ;; Data sizes:     COMRAM   BANK5   BANK6   BANK7   BANK8   BANK9  BANK10  BANK11  BANK12  BANK13  BANK14  BANK15  BANK1
      +6  BANK17  BANK18  BANK19  BANK20  BANK21  BANK22  BANK23  BANK24  BANK25  BANK26  BANK27  BANK28  BANK29  BANK30  BANK3
      +1  BANK32  BANK33  BANK34  BANK35  BANK36  BANK37  BANK38  BANK39  BANK40  BANK41  BANK42  BANK43  BANK44  BANK45  BANK4
      +6  BANK47  BANK48  BANK49  BANK50  BANK51  BANK52  BANK53  BANK54
  1724 ;;      Params:         0       0       0       0       0       0       0       0       0       0       0       0       
      +0       0       0       0       0       0       0       0       0       0       0       0       0       0       0       
      +0       0       0       0       0       0       0       0       0       0       0       0       0       0       0       
      +0       0       0       0       0       0       0       0       0
  1725 ;;      Locals:         0       0       0       0       0       0       0       0       0       0       0       0       
      +0       0       0       0       0       0       0       0       0       0       0       0       0       0       0       
      +0       0       0       0       0       0       0       0       0       0       0       0       0       0       0       
      +0       0       0       0       0       0       0       0       0
  1726 ;;      Temps:          0       0       0       0       0       0       0       0       0       0       0       0       
      +0       0       0       0       0       0       0       0       0       0       0       0       0       0       0       
      +0       0       0       0       0       0       0       0       0       0       0       0       0       0       0       
      +0       0       0       0       0       0       0       0       0
  1727 ;;      Totals:         0       0       0       0       0       0       0       0       0       0       0       0       
      +0       0       0       0       0       0       0       0       0       0       0       0       0       0       0       
      +0       0       0       0       0       0       0       0       0       0       0       0       0       0       0       
      +0       0       0       0       0       0       0       0       0
  1728 ;;Total ram usage:        0 bytes
  1729 ;; Hardware stack levels used: 1
  1730 ;; Hardware stack levels required when called: 4
  1731 ;; This function calls:
  1732 ;;		Nothing
  1733 ;; This function is called by:
  1734 ;;		_SYSTEM_Initialize
  1735 ;; This function uses a non-reentrant model
  1736 ;;
  1737                           
  1738                           	psect	text17
  1739  003F58                     __ptext17:
  1740                           	callstack 0
  1741  003F58                     _PMD_Initialize:
  1742                           	callstack 121
  1743  003F58                     
  1744                           ;mcc_generated_files/mcc.c: 79:     PMD0 = 0x00;
  1745  003F58  0E00               	movlw	0
  1746  003F5A  0100               	movlb	0	; () banked
  1747  003F5C  6F60               	movwf	96,b	;volatile
  1748                           
  1749                           ;mcc_generated_files/mcc.c: 81:     PMD1 = 0x00;
  1750  003F5E  0E00               	movlw	0
  1751  003F60  6F61               	movwf	97,b	;volatile
  1752                           
  1753                           ;mcc_generated_files/mcc.c: 83:     PMD2 = 0x00;
  1754  003F62  0E00               	movlw	0
  1755  003F64  6F62               	movwf	98,b	;volatile
  1756                           
  1757                           ;mcc_generated_files/mcc.c: 85:     PMD3 = 0x00;
  1758  003F66  0E00               	movlw	0
  1759  003F68  6F63               	movwf	99,b	;volatile
  1760                           
  1761                           ;mcc_generated_files/mcc.c: 87:     PMD4 = 0x00;
  1762  003F6A  0E00               	movlw	0
  1763  003F6C  6F64               	movwf	100,b	;volatile
  1764                           
  1765                           ;mcc_generated_files/mcc.c: 89:     PMD5 = 0x00;
  1766  003F6E  0E00               	movlw	0
  1767  003F70  6F65               	movwf	101,b	;volatile
  1768                           
  1769                           ;mcc_generated_files/mcc.c: 91:     PMD6 = 0x00;
  1770  003F72  0E00               	movlw	0
  1771  003F74  6F66               	movwf	102,b	;volatile
  1772                           
  1773                           ;mcc_generated_files/mcc.c: 93:     PMD7 = 0x00;
  1774  003F76  0E00               	movlw	0
  1775  003F78  6F67               	movwf	103,b	;volatile
  1776                           
  1777                           ;mcc_generated_files/mcc.c: 95:     PMD8 = 0x00;
  1778  003F7A  0E00               	movlw	0
  1779  003F7C  6F68               	movwf	104,b	;volatile
  1780  003F7E                     
  1781                           ; BSR set to: 0
  1782  003F7E  0012               	return		;funcret
  1783  003F80                     __end_of_PMD_Initialize:
  1784                           	callstack 0
  1785                           
  1786 ;; *************** function _PIN_MANAGER_Initialize *****************
  1787 ;; Defined at:
  1788 ;;		line 55 in file "mcc_generated_files/pin_manager.c"
  1789 ;; Parameters:    Size  Location     Type
  1790 ;;		None
  1791 ;; Auto vars:     Size  Location     Type
  1792 ;;		None
  1793 ;; Return value:  Size  Location     Type
  1794 ;;                  1    wreg      void 
  1795 ;; Registers used:
  1796 ;;		wreg, status,2
  1797 ;; Tracked objects:
  1798 ;;		On entry : 0/0
  1799 ;;		On exit  : 0/0
  1800 ;;		Unchanged: 0/0
  1801 ;; Data sizes:     COMRAM   BANK5   BANK6   BANK7   BANK8   BANK9  BANK10  BANK11  BANK12  BANK13  BANK14  BANK15  BANK1
      +6  BANK17  BANK18  BANK19  BANK20  BANK21  BANK22  BANK23  BANK24  BANK25  BANK26  BANK27  BANK28  BANK29  BANK30  BANK3
      +1  BANK32  BANK33  BANK34  BANK35  BANK36  BANK37  BANK38  BANK39  BANK40  BANK41  BANK42  BANK43  BANK44  BANK45  BANK4
      +6  BANK47  BANK48  BANK49  BANK50  BANK51  BANK52  BANK53  BANK54
  1802 ;;      Params:         0       0       0       0       0       0       0       0       0       0       0       0       
      +0       0       0       0       0       0       0       0       0       0       0       0       0       0       0       
      +0       0       0       0       0       0       0       0       0       0       0       0       0       0       0       
      +0       0       0       0       0       0       0       0       0
  1803 ;;      Locals:         0       0       0       0       0       0       0       0       0       0       0       0       
      +0       0       0       0       0       0       0       0       0       0       0       0       0       0       0       
      +0       0       0       0       0       0       0       0       0       0       0       0       0       0       0       
      +0       0       0       0       0       0       0       0       0
  1804 ;;      Temps:          0       0       0       0       0       0       0       0       0       0       0       0       
      +0       0       0       0       0       0       0       0       0       0       0       0       0       0       0       
      +0       0       0       0       0       0       0       0       0       0       0       0       0       0       0       
      +0       0       0       0       0       0       0       0       0
  1805 ;;      Totals:         0       0       0       0       0       0       0       0       0       0       0       0       
      +0       0       0       0       0       0       0       0       0       0       0       0       0       0       0       
      +0       0       0       0       0       0       0       0       0       0       0       0       0       0       0       
      +0       0       0       0       0       0       0       0       0
  1806 ;;Total ram usage:        0 bytes
  1807 ;; Hardware stack levels used: 1
  1808 ;; Hardware stack levels required when called: 4
  1809 ;; This function calls:
  1810 ;;		Nothing
  1811 ;; This function is called by:
  1812 ;;		_SYSTEM_Initialize
  1813 ;; This function uses a non-reentrant model
  1814 ;;
  1815                           
  1816                           	psect	text18
  1817  003A00                     __ptext18:
  1818                           	callstack 0
  1819  003A00                     _PIN_MANAGER_Initialize:
  1820                           	callstack 121
  1821  003A00                     
  1822                           ;mcc_generated_files/pin_manager.c: 60:     LATE = 0x00;
  1823  003A00  0E00               	movlw	0
  1824  003A02  6EC2               	movwf	194,c	;volatile
  1825                           
  1826                           ;mcc_generated_files/pin_manager.c: 61:     LATD = 0x00;
  1827  003A04  0E00               	movlw	0
  1828  003A06  6EC1               	movwf	193,c	;volatile
  1829                           
  1830                           ;mcc_generated_files/pin_manager.c: 62:     LATA = 0x00;
  1831  003A08  0E00               	movlw	0
  1832  003A0A  6EBE               	movwf	190,c	;volatile
  1833                           
  1834                           ;mcc_generated_files/pin_manager.c: 63:     LATB = 0x0A;
  1835  003A0C  0E0A               	movlw	10
  1836  003A0E  6EBF               	movwf	191,c	;volatile
  1837                           
  1838                           ;mcc_generated_files/pin_manager.c: 64:     LATC = 0x00;
  1839  003A10  0E00               	movlw	0
  1840  003A12  6EC0               	movwf	192,c	;volatile
  1841                           
  1842                           ;mcc_generated_files/pin_manager.c: 69:     TRISE = 0x07;
  1843  003A14  0E07               	movlw	7
  1844  003A16  6ECA               	movwf	202,c	;volatile
  1845                           
  1846                           ;mcc_generated_files/pin_manager.c: 70:     TRISA = 0xEF;
  1847  003A18  0EEF               	movlw	239
  1848  003A1A  6EC6               	movwf	198,c	;volatile
  1849                           
  1850                           ;mcc_generated_files/pin_manager.c: 71:     TRISB = 0xE1;
  1851  003A1C  0EE1               	movlw	225
  1852  003A1E  6EC7               	movwf	199,c	;volatile
  1853                           
  1854                           ;mcc_generated_files/pin_manager.c: 72:     TRISC = 0xBF;
  1855  003A20  0EBF               	movlw	191
  1856  003A22  6EC8               	movwf	200,c	;volatile
  1857                           
  1858                           ;mcc_generated_files/pin_manager.c: 73:     TRISD = 0xBF;
  1859  003A24  0EBF               	movlw	191
  1860  003A26  6EC9               	movwf	201,c	;volatile
  1861                           
  1862                           ;mcc_generated_files/pin_manager.c: 78:     ANSELD = 0xBE;
  1863  003A28  0EBE               	movlw	190
  1864  003A2A  0104               	movlb	4	; () banked
  1865  003A2C  6F18               	movwf	24,b	;volatile
  1866                           
  1867                           ;mcc_generated_files/pin_manager.c: 79:     ANSELC = 0x7F;
  1868  003A2E  0E7F               	movlw	127
  1869  003A30  6F10               	movwf	16,b	;volatile
  1870                           
  1871                           ;mcc_generated_files/pin_manager.c: 80:     ANSELB = 0xE0;
  1872  003A32  0EE0               	movlw	224
  1873  003A34  6F08               	movwf	8,b	;volatile
  1874                           
  1875                           ;mcc_generated_files/pin_manager.c: 81:     ANSELE = 0x07;
  1876  003A36  0E07               	movlw	7
  1877  003A38  6F20               	movwf	32,b	;volatile
  1878  003A3A                     
  1879                           ; BSR set to: 4
  1880                           ;mcc_generated_files/pin_manager.c: 82:     ANSELA = 0xFF;
  1881  003A3A  6900               	setf	0,b	;volatile
  1882                           
  1883                           ;mcc_generated_files/pin_manager.c: 87:     WPUD = 0x00;
  1884  003A3C  0E00               	movlw	0
  1885  003A3E  6F19               	movwf	25,b	;volatile
  1886                           
  1887                           ;mcc_generated_files/pin_manager.c: 88:     WPUE = 0x00;
  1888  003A40  0E00               	movlw	0
  1889  003A42  6F21               	movwf	33,b	;volatile
  1890                           
  1891                           ;mcc_generated_files/pin_manager.c: 89:     WPUB = 0x11;
  1892  003A44  0E11               	movlw	17
  1893  003A46  6F09               	movwf	9,b	;volatile
  1894                           
  1895                           ;mcc_generated_files/pin_manager.c: 90:     WPUA = 0x00;
  1896  003A48  0E00               	movlw	0
  1897  003A4A  6F01               	movwf	1,b	;volatile
  1898                           
  1899                           ;mcc_generated_files/pin_manager.c: 91:     WPUC = 0x00;
  1900  003A4C  0E00               	movlw	0
  1901  003A4E  6F11               	movwf	17,b	;volatile
  1902                           
  1903                           ;mcc_generated_files/pin_manager.c: 96:     ODCONE = 0x00;
  1904  003A50  0E00               	movlw	0
  1905  003A52  6F22               	movwf	34,b	;volatile
  1906                           
  1907                           ;mcc_generated_files/pin_manager.c: 97:     ODCONA = 0x00;
  1908  003A54  0E00               	movlw	0
  1909  003A56  6F02               	movwf	2,b	;volatile
  1910                           
  1911                           ;mcc_generated_files/pin_manager.c: 98:     ODCONB = 0x00;
  1912  003A58  0E00               	movlw	0
  1913  003A5A  6F0A               	movwf	10,b	;volatile
  1914                           
  1915                           ;mcc_generated_files/pin_manager.c: 99:     ODCONC = 0x00;
  1916  003A5C  0E00               	movlw	0
  1917  003A5E  6F12               	movwf	18,b	;volatile
  1918                           
  1919                           ;mcc_generated_files/pin_manager.c: 100:     ODCOND = 0x00;
  1920  003A60  0E00               	movlw	0
  1921  003A62  6F1A               	movwf	26,b	;volatile
  1922  003A64                     
  1923                           ; BSR set to: 4
  1924                           ;mcc_generated_files/pin_manager.c: 105:     SLRCONA = 0xFF;
  1925  003A64  6903               	setf	3,b	;volatile
  1926  003A66                     
  1927                           ; BSR set to: 4
  1928                           ;mcc_generated_files/pin_manager.c: 106:     SLRCONB = 0xFF;
  1929  003A66  690B               	setf	11,b	;volatile
  1930  003A68                     
  1931                           ; BSR set to: 4
  1932                           ;mcc_generated_files/pin_manager.c: 107:     SLRCONC = 0xFF;
  1933  003A68  6913               	setf	19,b	;volatile
  1934  003A6A                     
  1935                           ; BSR set to: 4
  1936                           ;mcc_generated_files/pin_manager.c: 108:     SLRCOND = 0xFF;
  1937  003A6A  691B               	setf	27,b	;volatile
  1938                           
  1939                           ;mcc_generated_files/pin_manager.c: 109:     SLRCONE = 0x07;
  1940  003A6C  0E07               	movlw	7
  1941  003A6E  6F23               	movwf	35,b	;volatile
  1942  003A70                     
  1943                           ; BSR set to: 4
  1944                           ;mcc_generated_files/pin_manager.c: 114:     INLVLA = 0xFF;
  1945  003A70  6904               	setf	4,b	;volatile
  1946  003A72                     
  1947                           ; BSR set to: 4
  1948                           ;mcc_generated_files/pin_manager.c: 115:     INLVLB = 0xFF;
  1949  003A72  690C               	setf	12,b	;volatile
  1950  003A74                     
  1951                           ; BSR set to: 4
  1952                           ;mcc_generated_files/pin_manager.c: 116:     INLVLC = 0xFF;
  1953  003A74  6914               	setf	20,b	;volatile
  1954  003A76                     
  1955                           ; BSR set to: 4
  1956                           ;mcc_generated_files/pin_manager.c: 117:     INLVLD = 0xFF;
  1957  003A76  691C               	setf	28,b	;volatile
  1958                           
  1959                           ;mcc_generated_files/pin_manager.c: 118:     INLVLE = 0x0F;
  1960  003A78  0E0F               	movlw	15
  1961  003A7A  6F24               	movwf	36,b	;volatile
  1962                           
  1963                           ;mcc_generated_files/pin_manager.c: 127:     U2RXPPS = 0x18;
  1964  003A7C  0E18               	movlw	24
  1965  003A7E  0102               	movlb	2	; () banked
  1966  003A80  6F74               	movwf	116,b	;volatile
  1967                           
  1968                           ;mcc_generated_files/pin_manager.c: 128:     CANRXPPS = 0x08;
  1969  003A82  0E08               	movlw	8
  1970  003A84  6F3D               	movwf	61,b	;volatile
  1971                           
  1972                           ;mcc_generated_files/pin_manager.c: 129:     RB4PPS = 0x46;
  1973  003A86  0E46               	movlw	70
  1974  003A88  6F0D               	movwf	13,b	;volatile
  1975                           
  1976                           ;mcc_generated_files/pin_manager.c: 130:     RC6PPS = 0x20;
  1977  003A8A  0E20               	movlw	32
  1978  003A8C  6F17               	movwf	23,b	;volatile
  1979                           
  1980                           ;mcc_generated_files/pin_manager.c: 131:     U1RXPPS = 0x17;
  1981  003A8E  0E17               	movlw	23
  1982  003A90  6F72               	movwf	114,b	;volatile
  1983                           
  1984                           ;mcc_generated_files/pin_manager.c: 132:     RD6PPS = 0x23;
  1985  003A92  0E23               	movlw	35
  1986  003A94  6F1F               	movwf	31,b	;volatile
  1987  003A96                     
  1988                           ; BSR set to: 2
  1989  003A96  0012               	return		;funcret
  1990  003A98                     __end_of_PIN_MANAGER_Initialize:
  1991                           	callstack 0
  1992                           
  1993 ;; *************** function _OSCILLATOR_Initialize *****************
  1994 ;; Defined at:
  1995 ;;		line 62 in file "mcc_generated_files/mcc.c"
  1996 ;; Parameters:    Size  Location     Type
  1997 ;;		None
  1998 ;; Auto vars:     Size  Location     Type
  1999 ;;		None
  2000 ;; Return value:  Size  Location     Type
  2001 ;;                  1    wreg      void 
  2002 ;; Registers used:
  2003 ;;		wreg, status,2
  2004 ;; Tracked objects:
  2005 ;;		On entry : 0/0
  2006 ;;		On exit  : 0/0
  2007 ;;		Unchanged: 0/0
  2008 ;; Data sizes:     COMRAM   BANK5   BANK6   BANK7   BANK8   BANK9  BANK10  BANK11  BANK12  BANK13  BANK14  BANK15  BANK1
      +6  BANK17  BANK18  BANK19  BANK20  BANK21  BANK22  BANK23  BANK24  BANK25  BANK26  BANK27  BANK28  BANK29  BANK30  BANK3
      +1  BANK32  BANK33  BANK34  BANK35  BANK36  BANK37  BANK38  BANK39  BANK40  BANK41  BANK42  BANK43  BANK44  BANK45  BANK4
      +6  BANK47  BANK48  BANK49  BANK50  BANK51  BANK52  BANK53  BANK54
  2009 ;;      Params:         0       0       0       0       0       0       0       0       0       0       0       0       
      +0       0       0       0       0       0       0       0       0       0       0       0       0       0       0       
      +0       0       0       0       0       0       0       0       0       0       0       0       0       0       0       
      +0       0       0       0       0       0       0       0       0
  2010 ;;      Locals:         0       0       0       0       0       0       0       0       0       0       0       0       
      +0       0       0       0       0       0       0       0       0       0       0       0       0       0       0       
      +0       0       0       0       0       0       0       0       0       0       0       0       0       0       0       
      +0       0       0       0       0       0       0       0       0
  2011 ;;      Temps:          0       0       0       0       0       0       0       0       0       0       0       0       
      +0       0       0       0       0       0       0       0       0       0       0       0       0       0       0       
      +0       0       0       0       0       0       0       0       0       0       0       0       0       0       0       
      +0       0       0       0       0       0       0       0       0
  2012 ;;      Totals:         0       0       0       0       0       0       0       0       0       0       0       0       
      +0       0       0       0       0       0       0       0       0       0       0       0       0       0       0       
      +0       0       0       0       0       0       0       0       0       0       0       0       0       0       0       
      +0       0       0       0       0       0       0       0       0
  2013 ;;Total ram usage:        0 bytes
  2014 ;; Hardware stack levels used: 1
  2015 ;; Hardware stack levels required when called: 4
  2016 ;; This function calls:
  2017 ;;		Nothing
  2018 ;; This function is called by:
  2019 ;;		_SYSTEM_Initialize
  2020 ;; This function uses a non-reentrant model
  2021 ;;
  2022                           
  2023                           	psect	text19
  2024  003FC6                     __ptext19:
  2025                           	callstack 0
  2026  003FC6                     _OSCILLATOR_Initialize:
  2027                           	callstack 121
  2028  003FC6                     
  2029                           ;mcc_generated_files/mcc.c: 65:     OSCCON1 = 0x70;
  2030  003FC6  0E70               	movlw	112
  2031  003FC8  0100               	movlb	0	; () banked
  2032  003FCA  6FAD               	movwf	173,b	;volatile
  2033                           
  2034                           ;mcc_generated_files/mcc.c: 67:     OSCCON3 = 0x00;
  2035  003FCC  0E00               	movlw	0
  2036  003FCE  6FAF               	movwf	175,b	;volatile
  2037                           
  2038                           ;mcc_generated_files/mcc.c: 69:     OSCEN = 0x00;
  2039  003FD0  0E00               	movlw	0
  2040  003FD2  6FB3               	movwf	179,b	;volatile
  2041                           
  2042                           ;mcc_generated_files/mcc.c: 71:     OSCFRQ = 0x02;
  2043  003FD4  0E02               	movlw	2
  2044  003FD6  6FB1               	movwf	177,b	;volatile
  2045                           
  2046                           ;mcc_generated_files/mcc.c: 73:     OSCTUNE = 0x00;
  2047  003FD8  0E00               	movlw	0
  2048  003FDA  6FB0               	movwf	176,b	;volatile
  2049  003FDC                     
  2050                           ; BSR set to: 0
  2051  003FDC  0012               	return		;funcret
  2052  003FDE                     __end_of_OSCILLATOR_Initialize:
  2053                           	callstack 0
  2054                           
  2055 ;; *************** function _INTERRUPT_Initialize *****************
  2056 ;; Defined at:
  2057 ;;		line 52 in file "mcc_generated_files/interrupt_manager.c"
  2058 ;; Parameters:    Size  Location     Type
  2059 ;;		None
  2060 ;; Auto vars:     Size  Location     Type
  2061 ;;  state           1   11[COMRAM] _Bool 
  2062 ;; Return value:  Size  Location     Type
  2063 ;;                  1    wreg      void 
  2064 ;; Registers used:
  2065 ;;		wreg, status,2
  2066 ;; Tracked objects:
  2067 ;;		On entry : 0/0
  2068 ;;		On exit  : 0/0
  2069 ;;		Unchanged: 0/0
  2070 ;; Data sizes:     COMRAM   BANK5   BANK6   BANK7   BANK8   BANK9  BANK10  BANK11  BANK12  BANK13  BANK14  BANK15  BANK1
      +6  BANK17  BANK18  BANK19  BANK20  BANK21  BANK22  BANK23  BANK24  BANK25  BANK26  BANK27  BANK28  BANK29  BANK30  BANK3
      +1  BANK32  BANK33  BANK34  BANK35  BANK36  BANK37  BANK38  BANK39  BANK40  BANK41  BANK42  BANK43  BANK44  BANK45  BANK4
      +6  BANK47  BANK48  BANK49  BANK50  BANK51  BANK52  BANK53  BANK54
  2071 ;;      Params:         0       0       0       0       0       0       0       0       0       0       0       0       
      +0       0       0       0       0       0       0       0       0       0       0       0       0       0       0       
      +0       0       0       0       0       0       0       0       0       0       0       0       0       0       0       
      +0       0       0       0       0       0       0       0       0
  2072 ;;      Locals:         1       0       0       0       0       0       0       0       0       0       0       0       
      +0       0       0       0       0       0       0       0       0       0       0       0       0       0       0       
      +0       0       0       0       0       0       0       0       0       0       0       0       0       0       0       
      +0       0       0       0       0       0       0       0       0
  2073 ;;      Temps:          0       0       0       0       0       0       0       0       0       0       0       0       
      +0       0       0       0       0       0       0       0       0       0       0       0       0       0       0       
      +0       0       0       0       0       0       0       0       0       0       0       0       0       0       0       
      +0       0       0       0       0       0       0       0       0
  2074 ;;      Totals:         1       0       0       0       0       0       0       0       0       0       0       0       
      +0       0       0       0       0       0       0       0       0       0       0       0       0       0       0       
      +0       0       0       0       0       0       0       0       0       0       0       0       0       0       0       
      +0       0       0       0       0       0       0       0       0
  2075 ;;Total ram usage:        1 bytes
  2076 ;; Hardware stack levels used: 1
  2077 ;; Hardware stack levels required when called: 4
  2078 ;; This function calls:
  2079 ;;		Nothing
  2080 ;; This function is called by:
  2081 ;;		_SYSTEM_Initialize
  2082 ;; This function uses a non-reentrant model
  2083 ;;
  2084                           
  2085                           	psect	text20
  2086  003DB8                     __ptext20:
  2087                           	callstack 0
  2088  003DB8                     _INTERRUPT_Initialize:
  2089                           	callstack 121
  2090  003DB8                     
  2091                           ;mcc_generated_files/interrupt_manager.c: 54:     INTCON0bits.IPEN = 1;
  2092  003DB8  8AD6               	bsf	214,5,c	;volatile
  2093  003DBA                     
  2094                           ;mcc_generated_files/interrupt_manager.c: 56:     _Bool state = (unsigned char)GIE;
  2095  003DBA  0E00               	movlw	0
  2096  003DBC  BED6               	btfsc	1238,7,c	;volatile
  2097  003DBE  0E01               	movlw	1
  2098  003DC0  6E2F               	movwf	INTERRUPT_Initialize@state^(0+1280),c
  2099  003DC2                     
  2100                           ;mcc_generated_files/interrupt_manager.c: 57:     GIE = 0;
  2101  003DC2  9ED6               	bcf	1238,7,c	;volatile
  2102                           
  2103                           ;mcc_generated_files/interrupt_manager.c: 58:     IVTLOCK = 0x55;
  2104  003DC4  0E55               	movlw	85
  2105  003DC6  0104               	movlb	4	; () banked
  2106  003DC8  6F59               	movwf	89,b	;volatile
  2107                           
  2108                           ;mcc_generated_files/interrupt_manager.c: 59:     IVTLOCK = 0xAA;
  2109  003DCA  0EAA               	movlw	170
  2110  003DCC  6F59               	movwf	89,b	;volatile
  2111  003DCE                     
  2112                           ; BSR set to: 4
  2113                           ;mcc_generated_files/interrupt_manager.c: 60:     IVTLOCKbits.IVTLOCKED = 0x00;
  2114  003DCE  9159               	bcf	89,0,b	;volatile
  2115                           
  2116                           ;mcc_generated_files/interrupt_manager.c: 62:     IVTBASEU = 0;
  2117  003DD0  0E00               	movlw	0
  2118  003DD2  6F5F               	movwf	95,b	;volatile
  2119                           
  2120                           ;mcc_generated_files/interrupt_manager.c: 63:     IVTBASEH = 0;
  2121  003DD4  0E00               	movlw	0
  2122  003DD6  6F5E               	movwf	94,b	;volatile
  2123                           
  2124                           ;mcc_generated_files/interrupt_manager.c: 64:     IVTBASEL = 8;
  2125  003DD8  0E08               	movlw	8
  2126  003DDA  6F5D               	movwf	93,b	;volatile
  2127                           
  2128                           ;mcc_generated_files/interrupt_manager.c: 66:     IVTLOCK = 0x55;
  2129  003DDC  0E55               	movlw	85
  2130  003DDE  6F59               	movwf	89,b	;volatile
  2131                           
  2132                           ;mcc_generated_files/interrupt_manager.c: 67:     IVTLOCK = 0xAA;
  2133  003DE0  0EAA               	movlw	170
  2134  003DE2  6F59               	movwf	89,b	;volatile
  2135  003DE4                     
  2136                           ; BSR set to: 4
  2137                           ;mcc_generated_files/interrupt_manager.c: 68:     IVTLOCKbits.IVTLOCKED = 0x01;
  2138  003DE4  8159               	bsf	89,0,b	;volatile
  2139  003DE6                     
  2140                           ; BSR set to: 4
  2141                           ;mcc_generated_files/interrupt_manager.c: 70:     GIE = state;
  2142  003DE6  B02F               	btfsc	INTERRUPT_Initialize@state^(0+1280),0,c
  2143  003DE8  D002               	bra	u95
  2144  003DEA  9ED6               	bcf	1238,7,c	;volatile
  2145  003DEC  D001               	bra	u96
  2146  003DEE                     u95:
  2147  003DEE  8ED6               	bsf	1238,7,c	;volatile
  2148  003DF0                     u96:
  2149  003DF0                     
  2150                           ;mcc_generated_files/interrupt_manager.c: 72:     IPR8bits.U2TXIP = 1;
  2151  003DF0  0103               	movlb	3	; () banked
  2152  003DF2  836A               	bsf	106,1,b	;volatile
  2153  003DF4                     
  2154                           ; BSR set to: 3
  2155                           ;mcc_generated_files/interrupt_manager.c: 73:     IPR8bits.U2RXIP = 1;
  2156  003DF4  816A               	bsf	106,0,b	;volatile
  2157  003DF6                     
  2158                           ; BSR set to: 3
  2159                           ;mcc_generated_files/interrupt_manager.c: 74:     IPR4bits.U1TXIP = 1;
  2160  003DF6  8366               	bsf	102,1,b	;volatile
  2161  003DF8                     
  2162                           ; BSR set to: 3
  2163                           ;mcc_generated_files/interrupt_manager.c: 75:     IPR4bits.U1RXIP = 1;
  2164  003DF8  8166               	bsf	102,0,b	;volatile
  2165  003DFA                     
  2166                           ; BSR set to: 3
  2167                           ;mcc_generated_files/interrupt_manager.c: 76:     IPR3bits.TMR0IP = 1;
  2168  003DFA  8F65               	bsf	101,7,b	;volatile
  2169  003DFC                     
  2170                           ; BSR set to: 3
  2171  003DFC  0012               	return		;funcret
  2172  003DFE                     __end_of_INTERRUPT_Initialize:
  2173                           	callstack 0
  2174                           
  2175 ;; *************** function _CAN1_Initialize *****************
  2176 ;; Defined at:
  2177 ;;		line 194 in file "mcc_generated_files/can1.c"
  2178 ;; Parameters:    Size  Location     Type
  2179 ;;		None
  2180 ;; Auto vars:     Size  Location     Type
  2181 ;;		None
  2182 ;; Return value:  Size  Location     Type
  2183 ;;                  1    wreg      void 
  2184 ;; Registers used:
  2185 ;;		wreg, fsr2l, fsr2h, status,2, status,0, prodl, prodh, cstack
  2186 ;; Tracked objects:
  2187 ;;		On entry : 0/0
  2188 ;;		On exit  : 0/0
  2189 ;;		Unchanged: 0/0
  2190 ;; Data sizes:     COMRAM   BANK5   BANK6   BANK7   BANK8   BANK9  BANK10  BANK11  BANK12  BANK13  BANK14  BANK15  BANK1
      +6  BANK17  BANK18  BANK19  BANK20  BANK21  BANK22  BANK23  BANK24  BANK25  BANK26  BANK27  BANK28  BANK29  BANK30  BANK3
      +1  BANK32  BANK33  BANK34  BANK35  BANK36  BANK37  BANK38  BANK39  BANK40  BANK41  BANK42  BANK43  BANK44  BANK45  BANK4
      +6  BANK47  BANK48  BANK49  BANK50  BANK51  BANK52  BANK53  BANK54
  2191 ;;      Params:         0       0       0       0       0       0       0       0       0       0       0       0       
      +0       0       0       0       0       0       0       0       0       0       0       0       0       0       0       
      +0       0       0       0       0       0       0       0       0       0       0       0       0       0       0       
      +0       0       0       0       0       0       0       0       0
  2192 ;;      Locals:         0       0       0       0       0       0       0       0       0       0       0       0       
      +0       0       0       0       0       0       0       0       0       0       0       0       0       0       0       
      +0       0       0       0       0       0       0       0       0       0       0       0       0       0       0       
      +0       0       0       0       0       0       0       0       0
  2193 ;;      Temps:          0       0       0       0       0       0       0       0       0       0       0       0       
      +0       0       0       0       0       0       0       0       0       0       0       0       0       0       0       
      +0       0       0       0       0       0       0       0       0       0       0       0       0       0       0       
      +0       0       0       0       0       0       0       0       0
  2194 ;;      Totals:         0       0       0       0       0       0       0       0       0       0       0       0       
      +0       0       0       0       0       0       0       0       0       0       0       0       0       0       0       
      +0       0       0       0       0       0       0       0       0       0       0       0       0       0       0       
      +0       0       0       0       0       0       0       0       0
  2195 ;;Total ram usage:        0 bytes
  2196 ;; Hardware stack levels used: 1
  2197 ;; Hardware stack levels required when called: 6
  2198 ;; This function calls:
  2199 ;;		_CAN1_BitRateConfiguration
  2200 ;;		_CAN1_OperationModeSet
  2201 ;;		_CAN1_RX_FIFO_Configuration
  2202 ;;		_CAN1_RX_FIFO_FilterMaskConfiguration
  2203 ;;		_CAN1_RX_FIFO_ResetInfo
  2204 ;;		_CAN1_TX_FIFO_Configuration
  2205 ;; This function is called by:
  2206 ;;		_SYSTEM_Initialize
  2207 ;; This function uses a non-reentrant model
  2208 ;;
  2209                           
  2210                           	psect	text21
  2211  003BF6                     __ptext21:
  2212                           	callstack 0
  2213  003BF6                     _CAN1_Initialize:
  2214                           	callstack 119
  2215  003BF6                     
  2216                           ;mcc_generated_files/can1.c: 197:     C1CONHbits.ON = 1;
  2217  003BF6  0101               	movlb	1	; () banked
  2218  003BF8  8F01               	bsf	1,7,b	;volatile
  2219  003BFA                     
  2220                           ; BSR set to: 1
  2221                           ;mcc_generated_files/can1.c: 199:     if (CAN_OP_MODE_REQUEST_SUCCESS == CAN1_OperationM
      +                          odeSet(CAN_CONFIGURATION_MODE))
  2222  003BFA  0E04               	movlw	4
  2223  003BFC  EC4C  F01D         	call	_CAN1_OperationModeSet
  2224  003C00  0900               	iorlw	0
  2225  003C02  A4D8               	btfss	status,2,c
  2226  003C04  EF06  F01E         	goto	u101
  2227  003C08  EF08  F01E         	goto	u100
  2228  003C0C                     u101:
  2229  003C0C  EF24  F01E         	goto	l242
  2230  003C10                     u100:
  2231  003C10                     
  2232                           ;mcc_generated_files/can1.c: 200:     {;mcc_generated_files/can1.c: 202:         C1FIFOB
      +                          A = 0x3800;
  2233  003C10  0E00               	movlw	0
  2234  003C12  0101               	movlb	1	; () banked
  2235  003C14  6F4C               	movwf	76,b	;volatile
  2236  003C16  0E38               	movlw	56
  2237  003C18  6F4D               	movwf	77,b	;volatile
  2238  003C1A  0E00               	movlw	0
  2239  003C1C  6F4E               	movwf	78,b	;volatile
  2240  003C1E  0E00               	movlw	0
  2241  003C20  6F4F               	movwf	79,b	;volatile
  2242                           
  2243                           ;mcc_generated_files/can1.c: 205:         C1CONL = 0x60;
  2244  003C22  0E60               	movlw	96
  2245  003C24  6F00               	movwf	0,b	;volatile
  2246                           
  2247                           ;mcc_generated_files/can1.c: 208:         C1CONH = 0x87;
  2248  003C26  0E87               	movlw	135
  2249  003C28  6F01               	movwf	1,b	;volatile
  2250                           
  2251                           ;mcc_generated_files/can1.c: 211:         C1CONU = 0x00;
  2252  003C2A  0E00               	movlw	0
  2253  003C2C  6F02               	movwf	2,b	;volatile
  2254  003C2E                     
  2255                           ; BSR set to: 1
  2256                           ;mcc_generated_files/can1.c: 213:         CAN1_BitRateConfiguration();
  2257  003C2E  EC57  F01F         	call	_CAN1_BitRateConfiguration	;wreg free
  2258  003C32                     
  2259                           ;mcc_generated_files/can1.c: 214:         CAN1_TX_FIFO_Configuration();
  2260  003C32  ECEF  F01F         	call	_CAN1_TX_FIFO_Configuration	;wreg free
  2261  003C36                     
  2262                           ;mcc_generated_files/can1.c: 215:         CAN1_RX_FIFO_Configuration();
  2263  003C36  ECF9  F01F         	call	_CAN1_RX_FIFO_Configuration	;wreg free
  2264                           
  2265                           ;mcc_generated_files/can1.c: 216:         CAN1_RX_FIFO_FilterMaskConfiguration();
  2266  003C3A  EC5F  F020         	call	_CAN1_RX_FIFO_FilterMaskConfiguration	;wreg free
  2267  003C3E                     
  2268                           ;mcc_generated_files/can1.c: 217:         CAN1_RX_FIFO_ResetInfo();
  2269  003C3E  EC41  F01F         	call	_CAN1_RX_FIFO_ResetInfo	;wreg free
  2270  003C42                     
  2271                           ;mcc_generated_files/can1.c: 218:         CAN1_OperationModeSet(CAN_NORMAL_FD_MODE);
  2272  003C42  0E00               	movlw	0
  2273  003C44  EC4C  F01D         	call	_CAN1_OperationModeSet
  2274  003C48                     l242:
  2275  003C48  0012               	return		;funcret
  2276  003C4A                     __end_of_CAN1_Initialize:
  2277                           	callstack 0
  2278                           
  2279 ;; *************** function _CAN1_TX_FIFO_Configuration *****************
  2280 ;; Defined at:
  2281 ;;		line 144 in file "mcc_generated_files/can1.c"
  2282 ;; Parameters:    Size  Location     Type
  2283 ;;		None
  2284 ;; Auto vars:     Size  Location     Type
  2285 ;;		None
  2286 ;; Return value:  Size  Location     Type
  2287 ;;                  1    wreg      void 
  2288 ;; Registers used:
  2289 ;;		wreg, status,2
  2290 ;; Tracked objects:
  2291 ;;		On entry : 0/0
  2292 ;;		On exit  : 0/0
  2293 ;;		Unchanged: 0/0
  2294 ;; Data sizes:     COMRAM   BANK5   BANK6   BANK7   BANK8   BANK9  BANK10  BANK11  BANK12  BANK13  BANK14  BANK15  BANK1
      +6  BANK17  BANK18  BANK19  BANK20  BANK21  BANK22  BANK23  BANK24  BANK25  BANK26  BANK27  BANK28  BANK29  BANK30  BANK3
      +1  BANK32  BANK33  BANK34  BANK35  BANK36  BANK37  BANK38  BANK39  BANK40  BANK41  BANK42  BANK43  BANK44  BANK45  BANK4
      +6  BANK47  BANK48  BANK49  BANK50  BANK51  BANK52  BANK53  BANK54
  2295 ;;      Params:         0       0       0       0       0       0       0       0       0       0       0       0       
      +0       0       0       0       0       0       0       0       0       0       0       0       0       0       0       
      +0       0       0       0       0       0       0       0       0       0       0       0       0       0       0       
      +0       0       0       0       0       0       0       0       0
  2296 ;;      Locals:         0       0       0       0       0       0       0       0       0       0       0       0       
      +0       0       0       0       0       0       0       0       0       0       0       0       0       0       0       
      +0       0       0       0       0       0       0       0       0       0       0       0       0       0       0       
      +0       0       0       0       0       0       0       0       0
  2297 ;;      Temps:          0       0       0       0       0       0       0       0       0       0       0       0       
      +0       0       0       0       0       0       0       0       0       0       0       0       0       0       0       
      +0       0       0       0       0       0       0       0       0       0       0       0       0       0       0       
      +0       0       0       0       0       0       0       0       0
  2298 ;;      Totals:         0       0       0       0       0       0       0       0       0       0       0       0       
      +0       0       0       0       0       0       0       0       0       0       0       0       0       0       0       
      +0       0       0       0       0       0       0       0       0       0       0       0       0       0       0       
      +0       0       0       0       0       0       0       0       0
  2299 ;;Total ram usage:        0 bytes
  2300 ;; Hardware stack levels used: 1
  2301 ;; Hardware stack levels required when called: 4
  2302 ;; This function calls:
  2303 ;;		Nothing
  2304 ;; This function is called by:
  2305 ;;		_CAN1_Initialize
  2306 ;; This function uses a non-reentrant model
  2307 ;;
  2308                           
  2309                           	psect	text22
  2310  003FDE                     __ptext22:
  2311                           	callstack 0
  2312  003FDE                     _CAN1_TX_FIFO_Configuration:
  2313                           	callstack 120
  2314  003FDE                     
  2315                           ;mcc_generated_files/can1.c: 147:     C1FIFOCON1L = 0x80;
  2316  003FDE  0E80               	movlw	128
  2317  003FE0  0101               	movlb	1	; () banked
  2318  003FE2  6F5C               	movwf	92,b	;volatile
  2319                           
  2320                           ;mcc_generated_files/can1.c: 150:     C1FIFOCON1H = 0x04;
  2321  003FE4  0E04               	movlw	4
  2322  003FE6  6F5D               	movwf	93,b	;volatile
  2323                           
  2324                           ;mcc_generated_files/can1.c: 153:     C1FIFOCON1U = 0x60;
  2325  003FE8  0E60               	movlw	96
  2326  003FEA  6F5E               	movwf	94,b	;volatile
  2327                           
  2328                           ;mcc_generated_files/can1.c: 156:     C1FIFOCON1T = 0xE7;
  2329  003FEC  0EE7               	movlw	231
  2330  003FEE  6F5F               	movwf	95,b	;volatile
  2331  003FF0                     
  2332                           ; BSR set to: 1
  2333  003FF0  0012               	return		;funcret
  2334  003FF2                     __end_of_CAN1_TX_FIFO_Configuration:
  2335                           	callstack 0
  2336                           
  2337 ;; *************** function _CAN1_RX_FIFO_ResetInfo *****************
  2338 ;; Defined at:
  2339 ;;		line 114 in file "mcc_generated_files/can1.c"
  2340 ;; Parameters:    Size  Location     Type
  2341 ;;		None
  2342 ;; Auto vars:     Size  Location     Type
  2343 ;;  index           1   11[COMRAM] unsigned char 
  2344 ;; Return value:  Size  Location     Type
  2345 ;;                  1    wreg      void 
  2346 ;; Registers used:
  2347 ;;		wreg, fsr2l, fsr2h, status,2, status,0, prodl, prodh
  2348 ;; Tracked objects:
  2349 ;;		On entry : 0/0
  2350 ;;		On exit  : 0/0
  2351 ;;		Unchanged: 0/0
  2352 ;; Data sizes:     COMRAM   BANK5   BANK6   BANK7   BANK8   BANK9  BANK10  BANK11  BANK12  BANK13  BANK14  BANK15  BANK1
      +6  BANK17  BANK18  BANK19  BANK20  BANK21  BANK22  BANK23  BANK24  BANK25  BANK26  BANK27  BANK28  BANK29  BANK30  BANK3
      +1  BANK32  BANK33  BANK34  BANK35  BANK36  BANK37  BANK38  BANK39  BANK40  BANK41  BANK42  BANK43  BANK44  BANK45  BANK4
      +6  BANK47  BANK48  BANK49  BANK50  BANK51  BANK52  BANK53  BANK54
  2353 ;;      Params:         0       0       0       0       0       0       0       0       0       0       0       0       
      +0       0       0       0       0       0       0       0       0       0       0       0       0       0       0       
      +0       0       0       0       0       0       0       0       0       0       0       0       0       0       0       
      +0       0       0       0       0       0       0       0       0
  2354 ;;      Locals:         1       0       0       0       0       0       0       0       0       0       0       0       
      +0       0       0       0       0       0       0       0       0       0       0       0       0       0       0       
      +0       0       0       0       0       0       0       0       0       0       0       0       0       0       0       
      +0       0       0       0       0       0       0       0       0
  2355 ;;      Temps:          0       0       0       0       0       0       0       0       0       0       0       0       
      +0       0       0       0       0       0       0       0       0       0       0       0       0       0       0       
      +0       0       0       0       0       0       0       0       0       0       0       0       0       0       0       
      +0       0       0       0       0       0       0       0       0
  2356 ;;      Totals:         1       0       0       0       0       0       0       0       0       0       0       0       
      +0       0       0       0       0       0       0       0       0       0       0       0       0       0       0       
      +0       0       0       0       0       0       0       0       0       0       0       0       0       0       0       
      +0       0       0       0       0       0       0       0       0
  2357 ;;Total ram usage:        1 bytes
  2358 ;; Hardware stack levels used: 1
  2359 ;; Hardware stack levels required when called: 4
  2360 ;; This function calls:
  2361 ;;		Nothing
  2362 ;; This function is called by:
  2363 ;;		_CAN1_Initialize
  2364 ;; This function uses a non-reentrant model
  2365 ;;
  2366                           
  2367                           	psect	text23
  2368  003E82                     __ptext23:
  2369                           	callstack 0
  2370  003E82                     _CAN1_RX_FIFO_ResetInfo:
  2371                           	callstack 120
  2372  003E82                     
  2373                           ;mcc_generated_files/can1.c: 116:     uint8_t index;;mcc_generated_files/can1.c: 118:   
      +                            for (index = 0; index < (1U); index++)
  2374  003E82  0E00               	movlw	0
  2375  003E84  6E2F               	movwf	CAN1_RX_FIFO_ResetInfo@index^(0+1280),c
  2376  003E86                     l1505:
  2377                           
  2378                           ;mcc_generated_files/can1.c: 119:     {;mcc_generated_files/can1.c: 120:         rxFifos
      +                          [index].fifoHead = 0;
  2379  003E86  502F               	movf	CAN1_RX_FIFO_ResetInfo@index^(0+1280),w,c
  2380  003E88  0D02               	mullw	2
  2381  003E8A  0E3F               	movlw	low (_rxFifos+1)
  2382  003E8C  24F3               	addwf	243,w,c
  2383  003E8E  6ED9               	movwf	fsr2l,c
  2384  003E90  0E05               	movlw	high (_rxFifos+1)
  2385  003E92  20F4               	addwfc	prodh,w,c
  2386  003E94  6EDA               	movwf	fsr2h,c
  2387  003E96  0E00               	movlw	0
  2388  003E98  6EDF               	movwf	indf2,c
  2389  003E9A                     
  2390                           ;mcc_generated_files/can1.c: 121:     }
  2391  003E9A  2A2F               	incf	CAN1_RX_FIFO_ResetInfo@index^(0+1280),f,c
  2392  003E9C  502F               	movf	CAN1_RX_FIFO_ResetInfo@index^(0+1280),w,c
  2393  003E9E  B4D8               	btfsc	status,2,c
  2394  003EA0  EF54  F01F         	goto	u11
  2395  003EA4  EF56  F01F         	goto	u10
  2396  003EA8                     u11:
  2397  003EA8  EF43  F01F         	goto	l1505
  2398  003EAC                     u10:
  2399  003EAC  0012               	return		;funcret
  2400  003EAE                     __end_of_CAN1_RX_FIFO_ResetInfo:
  2401                           	callstack 0
  2402                           
  2403 ;; *************** function _CAN1_RX_FIFO_FilterMaskConfiguration *****************
  2404 ;; Defined at:
  2405 ;;		line 140 in file "mcc_generated_files/can1.c"
  2406 ;; Parameters:    Size  Location     Type
  2407 ;;		None
  2408 ;; Auto vars:     Size  Location     Type
  2409 ;;		None
  2410 ;; Return value:  Size  Location     Type
  2411 ;;                  1    wreg      void 
  2412 ;; Registers used:
  2413 ;;		None
  2414 ;; Tracked objects:
  2415 ;;		On entry : 0/0
  2416 ;;		On exit  : 0/0
  2417 ;;		Unchanged: 0/0
  2418 ;; Data sizes:     COMRAM   BANK5   BANK6   BANK7   BANK8   BANK9  BANK10  BANK11  BANK12  BANK13  BANK14  BANK15  BANK1
      +6  BANK17  BANK18  BANK19  BANK20  BANK21  BANK22  BANK23  BANK24  BANK25  BANK26  BANK27  BANK28  BANK29  BANK30  BANK3
      +1  BANK32  BANK33  BANK34  BANK35  BANK36  BANK37  BANK38  BANK39  BANK40  BANK41  BANK42  BANK43  BANK44  BANK45  BANK4
      +6  BANK47  BANK48  BANK49  BANK50  BANK51  BANK52  BANK53  BANK54
  2419 ;;      Params:         0       0       0       0       0       0       0       0       0       0       0       0       
      +0       0       0       0       0       0       0       0       0       0       0       0       0       0       0       
      +0       0       0       0       0       0       0       0       0       0       0       0       0       0       0       
      +0       0       0       0       0       0       0       0       0
  2420 ;;      Locals:         0       0       0       0       0       0       0       0       0       0       0       0       
      +0       0       0       0       0       0       0       0       0       0       0       0       0       0       0       
      +0       0       0       0       0       0       0       0       0       0       0       0       0       0       0       
      +0       0       0       0       0       0       0       0       0
  2421 ;;      Temps:          0       0       0       0       0       0       0       0       0       0       0       0       
      +0       0       0       0       0       0       0       0       0       0       0       0       0       0       0       
      +0       0       0       0       0       0       0       0       0       0       0       0       0       0       0       
      +0       0       0       0       0       0       0       0       0
  2422 ;;      Totals:         0       0       0       0       0       0       0       0       0       0       0       0       
      +0       0       0       0       0       0       0       0       0       0       0       0       0       0       0       
      +0       0       0       0       0       0       0       0       0       0       0       0       0       0       0       
      +0       0       0       0       0       0       0       0       0
  2423 ;;Total ram usage:        0 bytes
  2424 ;; Hardware stack levels used: 1
  2425 ;; Hardware stack levels required when called: 4
  2426 ;; This function calls:
  2427 ;;		Nothing
  2428 ;; This function is called by:
  2429 ;;		_CAN1_Initialize
  2430 ;; This function uses a non-reentrant model
  2431 ;;
  2432                           
  2433                           	psect	text24
  2434  0040BE                     __ptext24:
  2435                           	callstack 0
  2436  0040BE                     _CAN1_RX_FIFO_FilterMaskConfiguration:
  2437                           	callstack 120
  2438  0040BE  0012               	return		;funcret
  2439  0040C0                     __end_of_CAN1_RX_FIFO_FilterMaskConfiguration:
  2440                           	callstack 0
  2441                           
  2442 ;; *************** function _CAN1_RX_FIFO_Configuration *****************
  2443 ;; Defined at:
  2444 ;;		line 124 in file "mcc_generated_files/can1.c"
  2445 ;; Parameters:    Size  Location     Type
  2446 ;;		None
  2447 ;; Auto vars:     Size  Location     Type
  2448 ;;		None
  2449 ;; Return value:  Size  Location     Type
  2450 ;;                  1    wreg      void 
  2451 ;; Registers used:
  2452 ;;		wreg, status,2
  2453 ;; Tracked objects:
  2454 ;;		On entry : 0/0
  2455 ;;		On exit  : 0/0
  2456 ;;		Unchanged: 0/0
  2457 ;; Data sizes:     COMRAM   BANK5   BANK6   BANK7   BANK8   BANK9  BANK10  BANK11  BANK12  BANK13  BANK14  BANK15  BANK1
      +6  BANK17  BANK18  BANK19  BANK20  BANK21  BANK22  BANK23  BANK24  BANK25  BANK26  BANK27  BANK28  BANK29  BANK30  BANK3
      +1  BANK32  BANK33  BANK34  BANK35  BANK36  BANK37  BANK38  BANK39  BANK40  BANK41  BANK42  BANK43  BANK44  BANK45  BANK4
      +6  BANK47  BANK48  BANK49  BANK50  BANK51  BANK52  BANK53  BANK54
  2458 ;;      Params:         0       0       0       0       0       0       0       0       0       0       0       0       
      +0       0       0       0       0       0       0       0       0       0       0       0       0       0       0       
      +0       0       0       0       0       0       0       0       0       0       0       0       0       0       0       
      +0       0       0       0       0       0       0       0       0
  2459 ;;      Locals:         0       0       0       0       0       0       0       0       0       0       0       0       
      +0       0       0       0       0       0       0       0       0       0       0       0       0       0       0       
      +0       0       0       0       0       0       0       0       0       0       0       0       0       0       0       
      +0       0       0       0       0       0       0       0       0
  2460 ;;      Temps:          0       0       0       0       0       0       0       0       0       0       0       0       
      +0       0       0       0       0       0       0       0       0       0       0       0       0       0       0       
      +0       0       0       0       0       0       0       0       0       0       0       0       0       0       0       
      +0       0       0       0       0       0       0       0       0
  2461 ;;      Totals:         0       0       0       0       0       0       0       0       0       0       0       0       
      +0       0       0       0       0       0       0       0       0       0       0       0       0       0       0       
      +0       0       0       0       0       0       0       0       0       0       0       0       0       0       0       
      +0       0       0       0       0       0       0       0       0
  2462 ;;Total ram usage:        0 bytes
  2463 ;; Hardware stack levels used: 1
  2464 ;; Hardware stack levels required when called: 4
  2465 ;; This function calls:
  2466 ;;		Nothing
  2467 ;; This function is called by:
  2468 ;;		_CAN1_Initialize
  2469 ;; This function uses a non-reentrant model
  2470 ;;
  2471                           
  2472                           	psect	text25
  2473  003FF2                     __ptext25:
  2474                           	callstack 0
  2475  003FF2                     _CAN1_RX_FIFO_Configuration:
  2476                           	callstack 120
  2477  003FF2                     
  2478                           ;mcc_generated_files/can1.c: 127:     C1FIFOCON2L = 0x00;
  2479  003FF2  0E00               	movlw	0
  2480  003FF4  0101               	movlb	1	; () banked
  2481  003FF6  6F68               	movwf	104,b	;volatile
  2482                           
  2483                           ;mcc_generated_files/can1.c: 130:     C1FIFOCON2H = 0x04;
  2484  003FF8  0E04               	movlw	4
  2485  003FFA  6F69               	movwf	105,b	;volatile
  2486                           
  2487                           ;mcc_generated_files/can1.c: 133:     C1FIFOCON2U = 0x60;
  2488  003FFC  0E60               	movlw	96
  2489  003FFE  6F6A               	movwf	106,b	;volatile
  2490                           
  2491                           ;mcc_generated_files/can1.c: 136:     C1FIFOCON2T = 0xE7;
  2492  004000  0EE7               	movlw	231
  2493  004002  6F6B               	movwf	107,b	;volatile
  2494  004004                     
  2495                           ; BSR set to: 1
  2496  004004  0012               	return		;funcret
  2497  004006                     __end_of_CAN1_RX_FIFO_Configuration:
  2498                           	callstack 0
  2499                           
  2500 ;; *************** function _CAN1_OperationModeSet *****************
  2501 ;; Defined at:
  2502 ;;		line 222 in file "mcc_generated_files/can1.c"
  2503 ;; Parameters:    Size  Location     Type
  2504 ;;  requestMode     1    wreg     const enum E22797
  2505 ;; Auto vars:     Size  Location     Type
  2506 ;;  requestMode     1   13[COMRAM] const enum E22797
  2507 ;;  status          1   12[COMRAM] enum E22807
  2508 ;;  opMode          1   11[COMRAM] enum E22797
  2509 ;; Return value:  Size  Location     Type
  2510 ;;                  1    wreg      enum E22807
  2511 ;; Registers used:
  2512 ;;		wreg, status,2, status,0, cstack
  2513 ;; Tracked objects:
  2514 ;;		On entry : 0/0
  2515 ;;		On exit  : 0/0
  2516 ;;		Unchanged: 0/0
  2517 ;; Data sizes:     COMRAM   BANK5   BANK6   BANK7   BANK8   BANK9  BANK10  BANK11  BANK12  BANK13  BANK14  BANK15  BANK1
      +6  BANK17  BANK18  BANK19  BANK20  BANK21  BANK22  BANK23  BANK24  BANK25  BANK26  BANK27  BANK28  BANK29  BANK30  BANK3
      +1  BANK32  BANK33  BANK34  BANK35  BANK36  BANK37  BANK38  BANK39  BANK40  BANK41  BANK42  BANK43  BANK44  BANK45  BANK4
      +6  BANK47  BANK48  BANK49  BANK50  BANK51  BANK52  BANK53  BANK54
  2518 ;;      Params:         0       0       0       0       0       0       0       0       0       0       0       0       
      +0       0       0       0       0       0       0       0       0       0       0       0       0       0       0       
      +0       0       0       0       0       0       0       0       0       0       0       0       0       0       0       
      +0       0       0       0       0       0       0       0       0
  2519 ;;      Locals:         3       0       0       0       0       0       0       0       0       0       0       0       
      +0       0       0       0       0       0       0       0       0       0       0       0       0       0       0       
      +0       0       0       0       0       0       0       0       0       0       0       0       0       0       0       
      +0       0       0       0       0       0       0       0       0
  2520 ;;      Temps:          0       0       0       0       0       0       0       0       0       0       0       0       
      +0       0       0       0       0       0       0       0       0       0       0       0       0       0       0       
      +0       0       0       0       0       0       0       0       0       0       0       0       0       0       0       
      +0       0       0       0       0       0       0       0       0
  2521 ;;      Totals:         3       0       0       0       0       0       0       0       0       0       0       0       
      +0       0       0       0       0       0       0       0       0       0       0       0       0       0       0       
      +0       0       0       0       0       0       0       0       0       0       0       0       0       0       0       
      +0       0       0       0       0       0       0       0       0
  2522 ;;Total ram usage:        3 bytes
  2523 ;; Hardware stack levels used: 1
  2524 ;; Hardware stack levels required when called: 5
  2525 ;; This function calls:
  2526 ;;		_CAN1_OperationModeGet
  2527 ;; This function is called by:
  2528 ;;		_CAN1_Initialize
  2529 ;;		_CAN1_Sleep
  2530 ;; This function uses a non-reentrant model
  2531 ;;
  2532                           
  2533                           	psect	text26
  2534  003A98                     __ptext26:
  2535                           	callstack 0
  2536  003A98                     _CAN1_OperationModeSet:
  2537                           	callstack 119
  2538                           
  2539                           ; BSR set to: 1
  2540                           ;incstack = 0
  2541                           ;CAN1_OperationModeSet@requestMode stored from wreg
  2542  003A98  6E31               	movwf	CAN1_OperationModeSet@requestMode^(0+1280),c
  2543  003A9A                     
  2544                           ;mcc_generated_files/can1.c: 222: CAN_OP_MODE_STATUS CAN1_OperationModeSet(const CAN_OP_
      +                          MODES requestMode);mcc_generated_files/can1.c: 223: {;mcc_generated_files/can1.c: 224:  
      +                             CAN_OP_MODE_STATUS status = CAN_OP_MODE_REQUEST_SUCCESS;
  2545  003A9A  0E00               	movlw	0
  2546  003A9C  6E30               	movwf	CAN1_OperationModeSet@status^(0+1280),c
  2547  003A9E                     
  2548                           ;mcc_generated_files/can1.c: 225:     CAN_OP_MODES opMode = CAN1_OperationModeGet();
  2549  003A9E  EC50  F020         	call	_CAN1_OperationModeGet	;wreg free
  2550  003AA2  6E2F               	movwf	CAN1_OperationModeSet@opMode^(0+1280),c
  2551  003AA4                     
  2552                           ;mcc_generated_files/can1.c: 227:     if (CAN_CONFIGURATION_MODE == opMode
  2553  003AA4  0E04               	movlw	4
  2554  003AA6  182F               	xorwf	CAN1_OperationModeSet@opMode^(0+1280),w,c
  2555  003AA8  B4D8               	btfsc	status,2,c
  2556  003AAA  EF59  F01D         	goto	u21
  2557  003AAE  EF5B  F01D         	goto	u20
  2558  003AB2                     u21:
  2559  003AB2  EF6C  F01D         	goto	l1527
  2560  003AB6                     u20:
  2561  003AB6  0431               	decf	CAN1_OperationModeSet@requestMode^(0+1280),w,c
  2562  003AB8  B4D8               	btfsc	status,2,c
  2563  003ABA  EF61  F01D         	goto	u31
  2564  003ABE  EF63  F01D         	goto	u30
  2565  003AC2                     u31:
  2566  003AC2  EF6C  F01D         	goto	l1527
  2567  003AC6                     u30:
  2568  003AC6  0E04               	movlw	4
  2569  003AC8  1831               	xorwf	CAN1_OperationModeSet@requestMode^(0+1280),w,c
  2570  003ACA  A4D8               	btfss	status,2,c
  2571  003ACC  EF6A  F01D         	goto	u41
  2572  003AD0  EF6C  F01D         	goto	u40
  2573  003AD4                     u41:
  2574  003AD4  EF8C  F01D         	goto	l1533
  2575  003AD8                     u40:
  2576  003AD8                     l1527:
  2577                           
  2578                           ;mcc_generated_files/can1.c: 230:     {;mcc_generated_files/can1.c: 231:         C1CONTb
      +                          its.REQOP = requestMode;
  2579  003AD8  0101               	movlb	1	; () banked
  2580  003ADA  5103               	movf	3,w,b	;volatile
  2581  003ADC  1831               	xorwf	CAN1_OperationModeSet@requestMode^(0+1280),w,c
  2582  003ADE  0BF8               	andlw	-8
  2583  003AE0  1831               	xorwf	CAN1_OperationModeSet@requestMode^(0+1280),w,c
  2584  003AE2  6F03               	movwf	3,b	;volatile
  2585                           
  2586                           ;mcc_generated_files/can1.c: 233:         while (C1CONUbits.OPMOD != requestMode)
  2587  003AE4  EF7F  F01D         	goto	l1531
  2588  003AE8                     l249:
  2589                           
  2590                           ; BSR set to: 1
  2591                           ;mcc_generated_files/can1.c: 234:         {;mcc_generated_files/can1.c: 236:            
      +                           if (1 == C1INTHbits.SERRIF)
  2592  003AE8  A91D               	btfss	29,4,b	;volatile
  2593  003AEA  EF79  F01D         	goto	u51
  2594  003AEE  EF7B  F01D         	goto	u50
  2595  003AF2                     u51:
  2596  003AF2  EF7F  F01D         	goto	l1531
  2597  003AF6                     u50:
  2598  003AF6                     
  2599                           ; BSR set to: 1
  2600                           ;mcc_generated_files/can1.c: 237:             {;mcc_generated_files/can1.c: 238:        
      +                                   status = CAN_OP_MODE_SYS_ERROR_OCCURED;
  2601  003AF6  0E02               	movlw	2
  2602  003AF8  6E30               	movwf	CAN1_OperationModeSet@status^(0+1280),c
  2603                           
  2604                           ;mcc_generated_files/can1.c: 239:                 break;
  2605  003AFA  EF8E  F01D         	goto	l252
  2606  003AFE                     l1531:
  2607                           
  2608                           ; BSR set to: 1
  2609                           ;mcc_generated_files/can1.c: 233:         while (C1CONUbits.OPMOD != requestMode)
  2610  003AFE  3902               	swapf	2,w,b	;volatile
  2611  003B00  32E8               	rrcf	wreg,f,c
  2612  003B02  0B07               	andlw	7
  2613  003B04  1831               	xorwf	CAN1_OperationModeSet@requestMode^(0+1280),w,c
  2614  003B06  A4D8               	btfss	status,2,c
  2615  003B08  EF88  F01D         	goto	u61
  2616  003B0C  EF8A  F01D         	goto	u60
  2617  003B10                     u61:
  2618  003B10  EF74  F01D         	goto	l249
  2619  003B14                     u60:
  2620  003B14  EF8E  F01D         	goto	l252
  2621  003B18                     l1533:
  2622                           
  2623                           ;mcc_generated_files/can1.c: 244:     {;mcc_generated_files/can1.c: 245:         status 
      +                          = CAN_OP_MODE_REQUEST_FAIL;
  2624  003B18  0E01               	movlw	1
  2625  003B1A  6E30               	movwf	CAN1_OperationModeSet@status^(0+1280),c
  2626  003B1C                     l252:
  2627                           
  2628                           ;mcc_generated_files/can1.c: 248:     return status;
  2629  003B1C  5030               	movf	CAN1_OperationModeSet@status^(0+1280),w,c
  2630  003B1E  0012               	return		;funcret
  2631  003B20                     __end_of_CAN1_OperationModeSet:
  2632                           	callstack 0
  2633                           
  2634 ;; *************** function _CAN1_OperationModeGet *****************
  2635 ;; Defined at:
  2636 ;;		line 251 in file "mcc_generated_files/can1.c"
  2637 ;; Parameters:    Size  Location     Type
  2638 ;;		None
  2639 ;; Auto vars:     Size  Location     Type
  2640 ;;		None
  2641 ;; Return value:  Size  Location     Type
  2642 ;;                  1    wreg      enum E22797
  2643 ;; Registers used:
  2644 ;;		wreg, status,2, status,0
  2645 ;; Tracked objects:
  2646 ;;		On entry : 0/0
  2647 ;;		On exit  : 0/0
  2648 ;;		Unchanged: 0/0
  2649 ;; Data sizes:     COMRAM   BANK5   BANK6   BANK7   BANK8   BANK9  BANK10  BANK11  BANK12  BANK13  BANK14  BANK15  BANK1
      +6  BANK17  BANK18  BANK19  BANK20  BANK21  BANK22  BANK23  BANK24  BANK25  BANK26  BANK27  BANK28  BANK29  BANK30  BANK3
      +1  BANK32  BANK33  BANK34  BANK35  BANK36  BANK37  BANK38  BANK39  BANK40  BANK41  BANK42  BANK43  BANK44  BANK45  BANK4
      +6  BANK47  BANK48  BANK49  BANK50  BANK51  BANK52  BANK53  BANK54
  2650 ;;      Params:         0       0       0       0       0       0       0       0       0       0       0       0       
      +0       0       0       0       0       0       0       0       0       0       0       0       0       0       0       
      +0       0       0       0       0       0       0       0       0       0       0       0       0       0       0       
      +0       0       0       0       0       0       0       0       0
  2651 ;;      Locals:         0       0       0       0       0       0       0       0       0       0       0       0       
      +0       0       0       0       0       0       0       0       0       0       0       0       0       0       0       
      +0       0       0       0       0       0       0       0       0       0       0       0       0       0       0       
      +0       0       0       0       0       0       0       0       0
  2652 ;;      Temps:          0       0       0       0       0       0       0       0       0       0       0       0       
      +0       0       0       0       0       0       0       0       0       0       0       0       0       0       0       
      +0       0       0       0       0       0       0       0       0       0       0       0       0       0       0       
      +0       0       0       0       0       0       0       0       0
  2653 ;;      Totals:         0       0       0       0       0       0       0       0       0       0       0       0       
      +0       0       0       0       0       0       0       0       0       0       0       0       0       0       0       
      +0       0       0       0       0       0       0       0       0       0       0       0       0       0       0       
      +0       0       0       0       0       0       0       0       0
  2654 ;;Total ram usage:        0 bytes
  2655 ;; Hardware stack levels used: 1
  2656 ;; Hardware stack levels required when called: 4
  2657 ;; This function calls:
  2658 ;;		Nothing
  2659 ;; This function is called by:
  2660 ;;		_CAN1_OperationModeSet
  2661 ;;		_ValidateTransmission
  2662 ;; This function uses a non-reentrant model
  2663 ;;
  2664                           
  2665                           	psect	text27
  2666  0040A0                     __ptext27:
  2667                           	callstack 0
  2668  0040A0                     _CAN1_OperationModeGet:
  2669                           	callstack 119
  2670  0040A0                     
  2671                           ;mcc_generated_files/can1.c: 253:     return C1CONUbits.OPMOD;
  2672  0040A0  0101               	movlb	1	; () banked
  2673  0040A2  3902               	swapf	2,w,b	;volatile
  2674  0040A4  32E8               	rrcf	wreg,f,c
  2675  0040A6  0B07               	andlw	7
  2676  0040A8                     
  2677                           ; BSR set to: 1
  2678  0040A8  0012               	return		;funcret
  2679  0040AA                     __end_of_CAN1_OperationModeGet:
  2680                           	callstack 0
  2681                           
  2682 ;; *************** function _CAN1_BitRateConfiguration *****************
  2683 ;; Defined at:
  2684 ;;		line 160 in file "mcc_generated_files/can1.c"
  2685 ;; Parameters:    Size  Location     Type
  2686 ;;		None
  2687 ;; Auto vars:     Size  Location     Type
  2688 ;;		None
  2689 ;; Return value:  Size  Location     Type
  2690 ;;                  1    wreg      void 
  2691 ;; Registers used:
  2692 ;;		wreg, status,2
  2693 ;; Tracked objects:
  2694 ;;		On entry : 0/0
  2695 ;;		On exit  : 0/0
  2696 ;;		Unchanged: 0/0
  2697 ;; Data sizes:     COMRAM   BANK5   BANK6   BANK7   BANK8   BANK9  BANK10  BANK11  BANK12  BANK13  BANK14  BANK15  BANK1
      +6  BANK17  BANK18  BANK19  BANK20  BANK21  BANK22  BANK23  BANK24  BANK25  BANK26  BANK27  BANK28  BANK29  BANK30  BANK3
      +1  BANK32  BANK33  BANK34  BANK35  BANK36  BANK37  BANK38  BANK39  BANK40  BANK41  BANK42  BANK43  BANK44  BANK45  BANK4
      +6  BANK47  BANK48  BANK49  BANK50  BANK51  BANK52  BANK53  BANK54
  2698 ;;      Params:         0       0       0       0       0       0       0       0       0       0       0       0       
      +0       0       0       0       0       0       0       0       0       0       0       0       0       0       0       
      +0       0       0       0       0       0       0       0       0       0       0       0       0       0       0       
      +0       0       0       0       0       0       0       0       0
  2699 ;;      Locals:         0       0       0       0       0       0       0       0       0       0       0       0       
      +0       0       0       0       0       0       0       0       0       0       0       0       0       0       0       
      +0       0       0       0       0       0       0       0       0       0       0       0       0       0       0       
      +0       0       0       0       0       0       0       0       0
  2700 ;;      Temps:          0       0       0       0       0       0       0       0       0       0       0       0       
      +0       0       0       0       0       0       0       0       0       0       0       0       0       0       0       
      +0       0       0       0       0       0       0       0       0       0       0       0       0       0       0       
      +0       0       0       0       0       0       0       0       0
  2701 ;;      Totals:         0       0       0       0       0       0       0       0       0       0       0       0       
      +0       0       0       0       0       0       0       0       0       0       0       0       0       0       0       
      +0       0       0       0       0       0       0       0       0       0       0       0       0       0       0       
      +0       0       0       0       0       0       0       0       0
  2702 ;;Total ram usage:        0 bytes
  2703 ;; Hardware stack levels used: 1
  2704 ;; Hardware stack levels required when called: 4
  2705 ;; This function calls:
  2706 ;;		Nothing
  2707 ;; This function is called by:
  2708 ;;		_CAN1_Initialize
  2709 ;; This function uses a non-reentrant model
  2710 ;;
  2711                           
  2712                           	psect	text28
  2713  003EAE                     __ptext28:
  2714                           	callstack 0
  2715  003EAE                     _CAN1_BitRateConfiguration:
  2716                           	callstack 120
  2717  003EAE                     
  2718                           ;mcc_generated_files/can1.c: 163:     C1NBTCFGL = 0x04;
  2719  003EAE  0E04               	movlw	4
  2720  003EB0  0101               	movlb	1	; () banked
  2721  003EB2  6F04               	movwf	4,b	;volatile
  2722                           
  2723                           ;mcc_generated_files/can1.c: 166:     C1NBTCFGH = 0x04;
  2724  003EB4  0E04               	movlw	4
  2725  003EB6  6F05               	movwf	5,b	;volatile
  2726                           
  2727                           ;mcc_generated_files/can1.c: 169:     C1NBTCFGU = 0x0D;
  2728  003EB8  0E0D               	movlw	13
  2729  003EBA  6F06               	movwf	6,b	;volatile
  2730                           
  2731                           ;mcc_generated_files/can1.c: 172:     C1NBTCFGT = 0x00;
  2732  003EBC  0E00               	movlw	0
  2733  003EBE  6F07               	movwf	7,b	;volatile
  2734                           
  2735                           ;mcc_generated_files/can1.c: 175:     C1DBTCFGL = 0x01;
  2736  003EC0  0E01               	movlw	1
  2737  003EC2  6F08               	movwf	8,b	;volatile
  2738                           
  2739                           ;mcc_generated_files/can1.c: 178:     C1DBTCFGH = 0x01;
  2740  003EC4  0E01               	movlw	1
  2741  003EC6  6F09               	movwf	9,b	;volatile
  2742                           
  2743                           ;mcc_generated_files/can1.c: 181:     C1DBTCFGU = 0x06;
  2744  003EC8  0E06               	movlw	6
  2745  003ECA  6F0A               	movwf	10,b	;volatile
  2746                           
  2747                           ;mcc_generated_files/can1.c: 184:     C1DBTCFGT = 0x00;
  2748  003ECC  0E00               	movlw	0
  2749  003ECE  6F0B               	movwf	11,b	;volatile
  2750                           
  2751                           ;mcc_generated_files/can1.c: 187:     C1TDCH = 0x07;
  2752  003ED0  0E07               	movlw	7
  2753  003ED2  6F0D               	movwf	13,b	;volatile
  2754                           
  2755                           ;mcc_generated_files/can1.c: 190:     C1TDCU = 0x02;
  2756  003ED4  0E02               	movlw	2
  2757  003ED6  6F0E               	movwf	14,b	;volatile
  2758  003ED8                     
  2759                           ; BSR set to: 1
  2760  003ED8  0012               	return		;funcret
  2761  003EDA                     __end_of_CAN1_BitRateConfiguration:
  2762                           	callstack 0
  2763                           
  2764 ;; *************** function _TMR0_ISR *****************
  2765 ;; Defined at:
  2766 ;;		line 122 in file "mcc_generated_files/tmr0.c"
  2767 ;; Parameters:    Size  Location     Type
  2768 ;;		None
  2769 ;; Auto vars:     Size  Location     Type
  2770 ;;		None
  2771 ;; Return value:  Size  Location     Type
  2772 ;;                  1    wreg      void 
  2773 ;; Registers used:
  2774 ;;		wreg, status,2, status,0, pcl, pclath, pclatu, tosl, cstack
  2775 ;; Tracked objects:
  2776 ;;		On entry : 0/0
  2777 ;;		On exit  : 0/0
  2778 ;;		Unchanged: 0/0
  2779 ;; Data sizes:     COMRAM   BANK5   BANK6   BANK7   BANK8   BANK9  BANK10  BANK11  BANK12  BANK13  BANK14  BANK15  BANK1
      +6  BANK17  BANK18  BANK19  BANK20  BANK21  BANK22  BANK23  BANK24  BANK25  BANK26  BANK27  BANK28  BANK29  BANK30  BANK3
      +1  BANK32  BANK33  BANK34  BANK35  BANK36  BANK37  BANK38  BANK39  BANK40  BANK41  BANK42  BANK43  BANK44  BANK45  BANK4
      +6  BANK47  BANK48  BANK49  BANK50  BANK51  BANK52  BANK53  BANK54
  2780 ;;      Params:         0       0       0       0       0       0       0       0       0       0       0       0       
      +0       0       0       0       0       0       0       0       0       0       0       0       0       0       0       
      +0       0       0       0       0       0       0       0       0       0       0       0       0       0       0       
      +0       0       0       0       0       0       0       0       0
  2781 ;;      Locals:         0       0       0       0       0       0       0       0       0       0       0       0       
      +0       0       0       0       0       0       0       0       0       0       0       0       0       0       0       
      +0       0       0       0       0       0       0       0       0       0       0       0       0       0       0       
      +0       0       0       0       0       0       0       0       0
  2782 ;;      Temps:          2       0       0       0       0       0       0       0       0       0       0       0       
      +0       0       0       0       0       0       0       0       0       0       0       0       0       0       0       
      +0       0       0       0       0       0       0       0       0       0       0       0       0       0       0       
      +0       0       0       0       0       0       0       0       0
  2783 ;;      Totals:         2       0       0       0       0       0       0       0       0       0       0       0       
      +0       0       0       0       0       0       0       0       0       0       0       0       0       0       0       
      +0       0       0       0       0       0       0       0       0       0       0       0       0       0       0       
      +0       0       0       0       0       0       0       0       0
  2784 ;;Total ram usage:        2 bytes
  2785 ;; Hardware stack levels used: 1
  2786 ;; Hardware stack levels required when called: 1
  2787 ;; This function calls:
  2788 ;;		Absolute function
  2789 ;;		_TMR0_DefaultInterruptHandler
  2790 ;;		_tmr0_isr
  2791 ;; This function is called by:
  2792 ;;		Interrupt level 2
  2793 ;; This function uses a non-reentrant model
  2794 ;;
  2795                           
  2796                           	psect	text29
  2797  003C4C                     __ptext29:
  2798                           	callstack 0
  2799  003C4C                     _TMR0_ISR:
  2800                           	callstack 121
  2801                           
  2802                           ; BSR set to: 1
  2803                           ;incstack = 0
  2804  003C4C  0061 F3E8  F525    	movff	pclath,??_TMR0_ISR
  2805  003C52  0061 F3EC  F526    	movff	pclatu,??_TMR0_ISR+1
  2806  003C58                     
  2807                           ;mcc_generated_files/tmr0.c: 125:     PIR3bits.TMR0IF = 0;
  2808  003C58  9EB1               	bcf	177,7,c	;volatile
  2809  003C5A                     
  2810                           ;mcc_generated_files/tmr0.c: 126:     if(TMR0_InterruptHandler)
  2811  003C5A  5013               	movf	_TMR0_InterruptHandler^(0+1280),w,c
  2812  003C5C  1014               	iorwf	(_TMR0_InterruptHandler+1)^(0+1280),w,c
  2813  003C5E  1015               	iorwf	(_TMR0_InterruptHandler+2)^(0+1280),w,c
  2814  003C60  B4D8               	btfsc	status,2,c
  2815  003C62  EF35  F01E         	goto	i2u79_41
  2816  003C66  EF37  F01E         	goto	i2u79_40
  2817  003C6A                     i2u79_41:
  2818  003C6A  EF44  F01E         	goto	i2l390
  2819  003C6E                     i2u79_40:
  2820  003C6E                     
  2821                           ;mcc_generated_files/tmr0.c: 127:     {;mcc_generated_files/tmr0.c: 128:         TMR0_In
      +                          terruptHandler();
  2822  003C6E  D802               	call	i2u80_48
  2823  003C70  EF44  F01E         	goto	i2u80_49
  2824  003C74                     i2u80_48:
  2825  003C74  0005               	push	
  2826  003C76  6EFA               	movwf	pclath,c
  2827  003C78  5013               	movf	_TMR0_InterruptHandler^(0+1280),w,c
  2828  003C7A  6EFD               	movwf	tosl,c
  2829  003C7C  5014               	movf	(_TMR0_InterruptHandler+1)^(0+1280),w,c
  2830  003C7E  6EFE               	movwf	tosh,c
  2831  003C80  5015               	movf	(_TMR0_InterruptHandler+2)^(0+1280),w,c
  2832  003C82  6EFF               	movwf	tosu,c
  2833  003C84  50FA               	movf	pclath,w,c
  2834  003C86  0012               	return		;indir
  2835  003C88                     i2u80_49:
  2836  003C88                     i2l390:
  2837  003C88  0061  F498  F4FB   	movff	??_TMR0_ISR+1,pclatu
  2838  003C8E  0061  F494  F4FA   	movff	??_TMR0_ISR,pclath
  2839  003C94  0011               	retfie		f
  2840  003C96                     __end_of_TMR0_ISR:
  2841                           	callstack 0
  2842                           
  2843 ;; *************** function _TMR0_DefaultInterruptHandler *****************
  2844 ;; Defined at:
  2845 ;;		line 139 in file "mcc_generated_files/tmr0.c"
  2846 ;; Parameters:    Size  Location     Type
  2847 ;;		None
  2848 ;; Auto vars:     Size  Location     Type
  2849 ;;		None
  2850 ;; Return value:  Size  Location     Type
  2851 ;;                  1    wreg      void 
  2852 ;; Registers used:
  2853 ;;		None
  2854 ;; Tracked objects:
  2855 ;;		On entry : 0/0
  2856 ;;		On exit  : 0/0
  2857 ;;		Unchanged: 0/0
  2858 ;; Data sizes:     COMRAM   BANK5   BANK6   BANK7   BANK8   BANK9  BANK10  BANK11  BANK12  BANK13  BANK14  BANK15  BANK1
      +6  BANK17  BANK18  BANK19  BANK20  BANK21  BANK22  BANK23  BANK24  BANK25  BANK26  BANK27  BANK28  BANK29  BANK30  BANK3
      +1  BANK32  BANK33  BANK34  BANK35  BANK36  BANK37  BANK38  BANK39  BANK40  BANK41  BANK42  BANK43  BANK44  BANK45  BANK4
      +6  BANK47  BANK48  BANK49  BANK50  BANK51  BANK52  BANK53  BANK54
  2859 ;;      Params:         0       0       0       0       0       0       0       0       0       0       0       0       
      +0       0       0       0       0       0       0       0       0       0       0       0       0       0       0       
      +0       0       0       0       0       0       0       0       0       0       0       0       0       0       0       
      +0       0       0       0       0       0       0       0       0
  2860 ;;      Locals:         0       0       0       0       0       0       0       0       0       0       0       0       
      +0       0       0       0       0       0       0       0       0       0       0       0       0       0       0       
      +0       0       0       0       0       0       0       0       0       0       0       0       0       0       0       
      +0       0       0       0       0       0       0       0       0
  2861 ;;      Temps:          0       0       0       0       0       0       0       0       0       0       0       0       
      +0       0       0       0       0       0       0       0       0       0       0       0       0       0       0       
      +0       0       0       0       0       0       0       0       0       0       0       0       0       0       0       
      +0       0       0       0       0       0       0       0       0
  2862 ;;      Totals:         0       0       0       0       0       0       0       0       0       0       0       0       
      +0       0       0       0       0       0       0       0       0       0       0       0       0       0       0       
      +0       0       0       0       0       0       0       0       0       0       0       0       0       0       0       
      +0       0       0       0       0       0       0       0       0
  2863 ;;Total ram usage:        0 bytes
  2864 ;; Hardware stack levels used: 1
  2865 ;; This function calls:
  2866 ;;		Nothing
  2867 ;; This function is called by:
  2868 ;;		_TMR0_Initialize
  2869 ;;		_TMR0_ISR
  2870 ;; This function uses a non-reentrant model
  2871 ;;
  2872                           
  2873                           	psect	text30
  2874  0040C0                     __ptext30:
  2875                           	callstack 0
  2876  0040C0                     _TMR0_DefaultInterruptHandler:
  2877                           	callstack 121
  2878  0040C0  0012               	return		;funcret
  2879  0040C2                     __end_of_TMR0_DefaultInterruptHandler:
  2880                           	callstack 0
  2881                           
  2882 ;; *************** function _tmr0_isr *****************
  2883 ;; Defined at:
  2884 ;;		line 48 in file "main.c"
  2885 ;; Parameters:    Size  Location     Type
  2886 ;;		None
  2887 ;; Auto vars:     Size  Location     Type
  2888 ;;		None
  2889 ;; Return value:  Size  Location     Type
  2890 ;;                  1    wreg      void 
  2891 ;; Registers used:
  2892 ;;		wreg, status,2, status,0
  2893 ;; Tracked objects:
  2894 ;;		On entry : 0/0
  2895 ;;		On exit  : 0/0
  2896 ;;		Unchanged: 0/0
  2897 ;; Data sizes:     COMRAM   BANK5   BANK6   BANK7   BANK8   BANK9  BANK10  BANK11  BANK12  BANK13  BANK14  BANK15  BANK1
      +6  BANK17  BANK18  BANK19  BANK20  BANK21  BANK22  BANK23  BANK24  BANK25  BANK26  BANK27  BANK28  BANK29  BANK30  BANK3
      +1  BANK32  BANK33  BANK34  BANK35  BANK36  BANK37  BANK38  BANK39  BANK40  BANK41  BANK42  BANK43  BANK44  BANK45  BANK4
      +6  BANK47  BANK48  BANK49  BANK50  BANK51  BANK52  BANK53  BANK54
  2898 ;;      Params:         0       0       0       0       0       0       0       0       0       0       0       0       
      +0       0       0       0       0       0       0       0       0       0       0       0       0       0       0       
      +0       0       0       0       0       0       0       0       0       0       0       0       0       0       0       
      +0       0       0       0       0       0       0       0       0
  2899 ;;      Locals:         0       0       0       0       0       0       0       0       0       0       0       0       
      +0       0       0       0       0       0       0       0       0       0       0       0       0       0       0       
      +0       0       0       0       0       0       0       0       0       0       0       0       0       0       0       
      +0       0       0       0       0       0       0       0       0
  2900 ;;      Temps:          1       0       0       0       0       0       0       0       0       0       0       0       
      +0       0       0       0       0       0       0       0       0       0       0       0       0       0       0       
      +0       0       0       0       0       0       0       0       0       0       0       0       0       0       0       
      +0       0       0       0       0       0       0       0       0
  2901 ;;      Totals:         1       0       0       0       0       0       0       0       0       0       0       0       
      +0       0       0       0       0       0       0       0       0       0       0       0       0       0       0       
      +0       0       0       0       0       0       0       0       0       0       0       0       0       0       0       
      +0       0       0       0       0       0       0       0       0
  2902 ;;Total ram usage:        1 bytes
  2903 ;; Hardware stack levels used: 1
  2904 ;; This function calls:
  2905 ;;		Nothing
  2906 ;; This function is called by:
  2907 ;;		_main
  2908 ;;		_TMR0_ISR
  2909 ;; This function uses a non-reentrant model
  2910 ;;
  2911                           
  2912                           	psect	text31
  2913  003B20                     __ptext31:
  2914                           	callstack 0
  2915  003B20                     _tmr0_isr:
  2916                           	callstack 121
  2917  003B20  B2BF               	btfsc	191,1,c	;volatile
  2918  003B22  EF95  F01D         	goto	i2u62_41
  2919  003B26  EF98  F01D         	goto	i2u62_40
  2920  003B2A                     i2u62_41:
  2921  003B2A  0E01               	movlw	1
  2922  003B2C  EF99  F01D         	goto	i2u62_46
  2923  003B30                     i2u62_40:
  2924  003B30  0E00               	movlw	0
  2925  003B32                     i2u62_46:
  2926  003B32  0AFF               	xorlw	255
  2927  003B34  6E24               	movwf	??_tmr0_isr^(0+1280),c
  2928  003B36  4624               	rlncf	??_tmr0_isr^(0+1280),f,c
  2929  003B38  50BF               	movf	191,w,c	;volatile
  2930  003B3A  1824               	xorwf	??_tmr0_isr^(0+1280),w,c
  2931  003B3C  0BFD               	andlw	-3
  2932  003B3E  1824               	xorwf	??_tmr0_isr^(0+1280),w,c
  2933  003B40  6EBF               	movwf	191,c	;volatile
  2934  003B42  B4BF               	btfsc	191,2,c	;volatile
  2935  003B44  EFA6  F01D         	goto	i2u63_41
  2936  003B48  EFA9  F01D         	goto	i2u63_40
  2937  003B4C                     i2u63_41:
  2938  003B4C  0E01               	movlw	1
  2939  003B4E  EFAA  F01D         	goto	i2u63_46
  2940  003B52                     i2u63_40:
  2941  003B52  0E00               	movlw	0
  2942  003B54                     i2u63_46:
  2943  003B54  0AFF               	xorlw	255
  2944  003B56  6E24               	movwf	??_tmr0_isr^(0+1280),c
  2945  003B58  4624               	rlncf	??_tmr0_isr^(0+1280),f,c
  2946  003B5A  4624               	rlncf	??_tmr0_isr^(0+1280),f,c
  2947  003B5C  50BF               	movf	191,w,c	;volatile
  2948  003B5E  1824               	xorwf	??_tmr0_isr^(0+1280),w,c
  2949  003B60  0BFB               	andlw	-5
  2950  003B62  1824               	xorwf	??_tmr0_isr^(0+1280),w,c
  2951  003B64  6EBF               	movwf	191,c	;volatile
  2952  003B66  B6BF               	btfsc	191,3,c	;volatile
  2953  003B68  EFB8  F01D         	goto	i2u64_41
  2954  003B6C  EFBB  F01D         	goto	i2u64_40
  2955  003B70                     i2u64_41:
  2956  003B70  0E01               	movlw	1
  2957  003B72  EFBC  F01D         	goto	i2u64_46
  2958  003B76                     i2u64_40:
  2959  003B76  0E00               	movlw	0
  2960  003B78                     i2u64_46:
  2961  003B78  0AFF               	xorlw	255
  2962  003B7A  6E24               	movwf	??_tmr0_isr^(0+1280),c
  2963  003B7C  4624               	rlncf	??_tmr0_isr^(0+1280),f,c
  2964  003B7E  4624               	rlncf	??_tmr0_isr^(0+1280),f,c
  2965  003B80  4624               	rlncf	??_tmr0_isr^(0+1280),f,c
  2966  003B82  50BF               	movf	191,w,c	;volatile
  2967  003B84  1824               	xorwf	??_tmr0_isr^(0+1280),w,c
  2968  003B86  0BF7               	andlw	-9
  2969  003B88  1824               	xorwf	??_tmr0_isr^(0+1280),w,c
  2970  003B8A  6EBF               	movwf	191,c	;volatile
  2971  003B8C  0012               	return		;funcret
  2972  003B8E                     __end_of_tmr0_isr:
  2973                           	callstack 0
  2974                           
  2975 ;; *************** function _Default_ISR *****************
  2976 ;; Defined at:
  2977 ;;		line 79 in file "mcc_generated_files/interrupt_manager.c"
  2978 ;; Parameters:    Size  Location     Type
  2979 ;;		None
  2980 ;; Auto vars:     Size  Location     Type
  2981 ;;		None
  2982 ;; Return value:  Size  Location     Type
  2983 ;;                  1    wreg      void 
  2984 ;; Registers used:
  2985 ;;		None
  2986 ;; Tracked objects:
  2987 ;;		On entry : 0/0
  2988 ;;		On exit  : 0/0
  2989 ;;		Unchanged: 0/0
  2990 ;; Data sizes:     COMRAM   BANK5   BANK6   BANK7   BANK8   BANK9  BANK10  BANK11  BANK12  BANK13  BANK14  BANK15  BANK1
      +6  BANK17  BANK18  BANK19  BANK20  BANK21  BANK22  BANK23  BANK24  BANK25  BANK26  BANK27  BANK28  BANK29  BANK30  BANK3
      +1  BANK32  BANK33  BANK34  BANK35  BANK36  BANK37  BANK38  BANK39  BANK40  BANK41  BANK42  BANK43  BANK44  BANK45  BANK4
      +6  BANK47  BANK48  BANK49  BANK50  BANK51  BANK52  BANK53  BANK54
  2991 ;;      Params:         0       0       0       0       0       0       0       0       0       0       0       0       
      +0       0       0       0       0       0       0       0       0       0       0       0       0       0       0       
      +0       0       0       0       0       0       0       0       0       0       0       0       0       0       0       
      +0       0       0       0       0       0       0       0       0
  2992 ;;      Locals:         0       0       0       0       0       0       0       0       0       0       0       0       
      +0       0       0       0       0       0       0       0       0       0       0       0       0       0       0       
      +0       0       0       0       0       0       0       0       0       0       0       0       0       0       0       
      +0       0       0       0       0       0       0       0       0
  2993 ;;      Temps:          0       0       0       0       0       0       0       0       0       0       0       0       
      +0       0       0       0       0       0       0       0       0       0       0       0       0       0       0       
      +0       0       0       0       0       0       0       0       0       0       0       0       0       0       0       
      +0       0       0       0       0       0       0       0       0
  2994 ;;      Totals:         0       0       0       0       0       0       0       0       0       0       0       0       
      +0       0       0       0       0       0       0       0       0       0       0       0       0       0       0       
      +0       0       0       0       0       0       0       0       0       0       0       0       0       0       0       
      +0       0       0       0       0       0       0       0       0
  2995 ;;Total ram usage:        0 bytes
  2996 ;; Hardware stack levels used: 1
  2997 ;; This function calls:
  2998 ;;		Nothing
  2999 ;; This function is called by:
  3000 ;;		Interrupt level 2
  3001 ;; This function uses a non-reentrant model
  3002 ;;
  3003                           
  3004                           	psect	text32
  3005  0040C4                     __ptext32:
  3006                           	callstack 0
  3007  0040C4                     _Default_ISR:
  3008                           	callstack 122
  3009  0040C4  0011               	retfie		f
  3010  0040C6                     __end_of_Default_ISR:
  3011                           	callstack 0
  3012                           
  3013 ;; *************** function _UART2_tx_vect_isr *****************
  3014 ;; Defined at:
  3015 ;;		line 225 in file "mcc_generated_files/uart2.c"
  3016 ;; Parameters:    Size  Location     Type
  3017 ;;		None
  3018 ;; Auto vars:     Size  Location     Type
  3019 ;;		None
  3020 ;; Return value:  Size  Location     Type
  3021 ;;                  1    wreg      void 
  3022 ;; Registers used:
  3023 ;;		wreg, fsr2l, fsr2h, status,2, status,0, pcl, pclath, pclatu, tosl, cstack
  3024 ;; Tracked objects:
  3025 ;;		On entry : 0/0
  3026 ;;		On exit  : 0/0
  3027 ;;		Unchanged: 0/0
  3028 ;; Data sizes:     COMRAM   BANK5   BANK6   BANK7   BANK8   BANK9  BANK10  BANK11  BANK12  BANK13  BANK14  BANK15  BANK1
      +6  BANK17  BANK18  BANK19  BANK20  BANK21  BANK22  BANK23  BANK24  BANK25  BANK26  BANK27  BANK28  BANK29  BANK30  BANK3
      +1  BANK32  BANK33  BANK34  BANK35  BANK36  BANK37  BANK38  BANK39  BANK40  BANK41  BANK42  BANK43  BANK44  BANK45  BANK4
      +6  BANK47  BANK48  BANK49  BANK50  BANK51  BANK52  BANK53  BANK54
  3029 ;;      Params:         0       0       0       0       0       0       0       0       0       0       0       0       
      +0       0       0       0       0       0       0       0       0       0       0       0       0       0       0       
      +0       0       0       0       0       0       0       0       0       0       0       0       0       0       0       
      +0       0       0       0       0       0       0       0       0
  3030 ;;      Locals:         0       0       0       0       0       0       0       0       0       0       0       0       
      +0       0       0       0       0       0       0       0       0       0       0       0       0       0       0       
      +0       0       0       0       0       0       0       0       0       0       0       0       0       0       0       
      +0       0       0       0       0       0       0       0       0
  3031 ;;      Temps:          2       0       0       0       0       0       0       0       0       0       0       0       
      +0       0       0       0       0       0       0       0       0       0       0       0       0       0       0       
      +0       0       0       0       0       0       0       0       0       0       0       0       0       0       0       
      +0       0       0       0       0       0       0       0       0
  3032 ;;      Totals:         2       0       0       0       0       0       0       0       0       0       0       0       
      +0       0       0       0       0       0       0       0       0       0       0       0       0       0       0       
      +0       0       0       0       0       0       0       0       0       0       0       0       0       0       0       
      +0       0       0       0       0       0       0       0       0
  3033 ;;Total ram usage:        2 bytes
  3034 ;; Hardware stack levels used: 1
  3035 ;; Hardware stack levels required when called: 1
  3036 ;; This function calls:
  3037 ;;		Absolute function
  3038 ;;		_UART2_Transmit_ISR
  3039 ;; This function is called by:
  3040 ;;		Interrupt level 2
  3041 ;; This function uses a non-reentrant model
  3042 ;;
  3043                           
  3044                           	psect	text33
  3045  003C98                     __ptext33:
  3046                           	callstack 0
  3047  003C98                     _UART2_tx_vect_isr:
  3048                           	callstack 121
  3049                           
  3050                           ;incstack = 0
  3051  003C98  0061 F3E8  F527    	movff	pclath,??_UART2_tx_vect_isr
  3052  003C9E  0061 F3EC  F528    	movff	pclatu,??_UART2_tx_vect_isr+1
  3053  003CA4                     
  3054                           ;mcc_generated_files/uart2.c: 227:     if(UART2_TxInterruptHandler)
  3055  003CA4  501C               	movf	_UART2_TxInterruptHandler^(0+1280),w,c
  3056  003CA6  101D               	iorwf	(_UART2_TxInterruptHandler+1)^(0+1280),w,c
  3057  003CA8  101E               	iorwf	(_UART2_TxInterruptHandler+2)^(0+1280),w,c
  3058  003CAA  B4D8               	btfsc	status,2,c
  3059  003CAC  EF5A  F01E         	goto	i2u153_41
  3060  003CB0  EF5C  F01E         	goto	i2u153_40
  3061  003CB4                     i2u153_41:
  3062  003CB4  EF69  F01E         	goto	i2l559
  3063  003CB8                     i2u153_40:
  3064  003CB8                     
  3065                           ;mcc_generated_files/uart2.c: 228:     {;mcc_generated_files/uart2.c: 229:         UART2
      +                          _TxInterruptHandler();
  3066  003CB8  D802               	call	i2u154_48
  3067  003CBA  EF69  F01E         	goto	i2u154_49
  3068  003CBE                     i2u154_48:
  3069  003CBE  0005               	push	
  3070  003CC0  6EFA               	movwf	pclath,c
  3071  003CC2  501C               	movf	_UART2_TxInterruptHandler^(0+1280),w,c
  3072  003CC4  6EFD               	movwf	tosl,c
  3073  003CC6  501D               	movf	(_UART2_TxInterruptHandler+1)^(0+1280),w,c
  3074  003CC8  6EFE               	movwf	tosh,c
  3075  003CCA  501E               	movf	(_UART2_TxInterruptHandler+2)^(0+1280),w,c
  3076  003CCC  6EFF               	movwf	tosu,c
  3077  003CCE  50FA               	movf	pclath,w,c
  3078  003CD0  0012               	return		;indir
  3079  003CD2                     i2u154_49:
  3080  003CD2                     i2l559:
  3081  003CD2  0061  F4A0  F4FB   	movff	??_UART2_tx_vect_isr+1,pclatu
  3082  003CD8  0061  F49C  F4FA   	movff	??_UART2_tx_vect_isr,pclath
  3083  003CDE  0011               	retfie		f
  3084  003CE0                     __end_of_UART2_tx_vect_isr:
  3085                           	callstack 0
  3086                           
  3087 ;; *************** function _UART2_Transmit_ISR *****************
  3088 ;; Defined at:
  3089 ;;		line 243 in file "mcc_generated_files/uart2.c"
  3090 ;; Parameters:    Size  Location     Type
  3091 ;;		None
  3092 ;; Auto vars:     Size  Location     Type
  3093 ;;		None
  3094 ;; Return value:  Size  Location     Type
  3095 ;;                  1    wreg      void 
  3096 ;; Registers used:
  3097 ;;		wreg, fsr2l, fsr2h, status,2, status,0
  3098 ;; Tracked objects:
  3099 ;;		On entry : 0/0
  3100 ;;		On exit  : 0/0
  3101 ;;		Unchanged: 0/0
  3102 ;; Data sizes:     COMRAM   BANK5   BANK6   BANK7   BANK8   BANK9  BANK10  BANK11  BANK12  BANK13  BANK14  BANK15  BANK1
      +6  BANK17  BANK18  BANK19  BANK20  BANK21  BANK22  BANK23  BANK24  BANK25  BANK26  BANK27  BANK28  BANK29  BANK30  BANK3
      +1  BANK32  BANK33  BANK34  BANK35  BANK36  BANK37  BANK38  BANK39  BANK40  BANK41  BANK42  BANK43  BANK44  BANK45  BANK4
      +6  BANK47  BANK48  BANK49  BANK50  BANK51  BANK52  BANK53  BANK54
  3103 ;;      Params:         0       0       0       0       0       0       0       0       0       0       0       0       
      +0       0       0       0       0       0       0       0       0       0       0       0       0       0       0       
      +0       0       0       0       0       0       0       0       0       0       0       0       0       0       0       
      +0       0       0       0       0       0       0       0       0
  3104 ;;      Locals:         0       0       0       0       0       0       0       0       0       0       0       0       
      +0       0       0       0       0       0       0       0       0       0       0       0       0       0       0       
      +0       0       0       0       0       0       0       0       0       0       0       0       0       0       0       
      +0       0       0       0       0       0       0       0       0
  3105 ;;      Temps:          0       0       0       0       0       0       0       0       0       0       0       0       
      +0       0       0       0       0       0       0       0       0       0       0       0       0       0       0       
      +0       0       0       0       0       0       0       0       0       0       0       0       0       0       0       
      +0       0       0       0       0       0       0       0       0
  3106 ;;      Totals:         0       0       0       0       0       0       0       0       0       0       0       0       
      +0       0       0       0       0       0       0       0       0       0       0       0       0       0       0       
      +0       0       0       0       0       0       0       0       0       0       0       0       0       0       0       
      +0       0       0       0       0       0       0       0       0
  3107 ;;Total ram usage:        0 bytes
  3108 ;; Hardware stack levels used: 1
  3109 ;; This function calls:
  3110 ;;		Nothing
  3111 ;; This function is called by:
  3112 ;;		_UART2_Initialize
  3113 ;;		_UART2_tx_vect_isr
  3114 ;; This function uses a non-reentrant model
  3115 ;;
  3116                           
  3117                           	psect	text34
  3118  003DFE                     __ptext34:
  3119                           	callstack 0
  3120  003DFE                     _UART2_Transmit_ISR:
  3121                           	callstack 121
  3122  003DFE                     
  3123                           ;mcc_generated_files/uart2.c: 246:     if(sizeof(uart2TxBuffer) > uart2TxBufferRemaining
      +                          )
  3124  003DFE  0E40               	movlw	64
  3125  003E00  6023               	cpfslt	_uart2TxBufferRemaining^(0+1280),c	;volatile
  3126  003E02  EF05  F01F         	goto	i2u123_41
  3127  003E06  EF07  F01F         	goto	i2u123_40
  3128  003E0A                     i2u123_41:
  3129  003E0A  EF1E  F01F         	goto	i2l568
  3130  003E0E                     i2u123_40:
  3131  003E0E                     
  3132                           ;mcc_generated_files/uart2.c: 247:     {;mcc_generated_files/uart2.c: 248:         U2TXB
      +                           = uart2TxBuffer[uart2TxTail++];
  3133  003E0E  0EC0               	movlw	low _uart2TxBuffer
  3134  003E10  243C               	addwf	_uart2TxTail^(0+1280),w,c	;volatile
  3135  003E12  6ED9               	movwf	fsr2l,c
  3136  003E14  6ADA               	clrf	fsr2h,c
  3137  003E16  0E06               	movlw	high _uart2TxBuffer
  3138  003E18  22DA               	addwfc	fsr2h,f,c
  3139  003E1A  50DF               	movf	indf2,w,c
  3140  003E1C  0102               	movlb	2	; () banked
  3141  003E1E  6FB6               	movwf	182,b	;volatile
  3142  003E20                     
  3143                           ; BSR set to: 2
  3144  003E20  2A3C               	incf	_uart2TxTail^(0+1280),f,c	;volatile
  3145  003E22                     
  3146                           ; BSR set to: 2
  3147                           ;mcc_generated_files/uart2.c: 249:        if(sizeof(uart2TxBuffer) <= uart2TxTail)
  3148  003E22  0E3F               	movlw	63
  3149  003E24  643C               	cpfsgt	_uart2TxTail^(0+1280),c	;volatile
  3150  003E26  EF17  F01F         	goto	i2u124_41
  3151  003E2A  EF19  F01F         	goto	i2u124_40
  3152  003E2E                     i2u124_41:
  3153  003E2E  EF1B  F01F         	goto	i2l2459
  3154  003E32                     i2u124_40:
  3155  003E32                     
  3156                           ; BSR set to: 2
  3157                           ;mcc_generated_files/uart2.c: 250:         {;mcc_generated_files/uart2.c: 251:          
      +                             uart2TxTail = 0;
  3158  003E32  0E00               	movlw	0
  3159  003E34  6E3C               	movwf	_uart2TxTail^(0+1280),c	;volatile
  3160  003E36                     i2l2459:
  3161                           
  3162                           ; BSR set to: 2
  3163                           ;mcc_generated_files/uart2.c: 253:         uart2TxBufferRemaining++;
  3164  003E36  2A23               	incf	_uart2TxBufferRemaining^(0+1280),f,c	;volatile
  3165                           
  3166                           ;mcc_generated_files/uart2.c: 254:     }
  3167  003E38  EF1F  F01F         	goto	i2l571
  3168  003E3C                     i2l568:
  3169                           
  3170                           ;mcc_generated_files/uart2.c: 256:     {;mcc_generated_files/uart2.c: 257:         PIE8b
      +                          its.U2TXIE = 0;
  3171  003E3C  92A6               	bcf	166,1,c	;volatile
  3172  003E3E                     i2l571:
  3173  003E3E  0012               	return		;funcret
  3174  003E40                     __end_of_UART2_Transmit_ISR:
  3175                           	callstack 0
  3176                           
  3177 ;; *************** function _UART2_rx_vect_isr *****************
  3178 ;; Defined at:
  3179 ;;		line 233 in file "mcc_generated_files/uart2.c"
  3180 ;; Parameters:    Size  Location     Type
  3181 ;;		None
  3182 ;; Auto vars:     Size  Location     Type
  3183 ;;		None
  3184 ;; Return value:  Size  Location     Type
  3185 ;;                  1    wreg      void 
  3186 ;; Registers used:
  3187 ;;		wreg, fsr2l, fsr2h, status,2, status,0, pcl, pclath, pclatu, tosl, cstack
  3188 ;; Tracked objects:
  3189 ;;		On entry : 0/0
  3190 ;;		On exit  : 0/0
  3191 ;;		Unchanged: 0/0
  3192 ;; Data sizes:     COMRAM   BANK5   BANK6   BANK7   BANK8   BANK9  BANK10  BANK11  BANK12  BANK13  BANK14  BANK15  BANK1
      +6  BANK17  BANK18  BANK19  BANK20  BANK21  BANK22  BANK23  BANK24  BANK25  BANK26  BANK27  BANK28  BANK29  BANK30  BANK3
      +1  BANK32  BANK33  BANK34  BANK35  BANK36  BANK37  BANK38  BANK39  BANK40  BANK41  BANK42  BANK43  BANK44  BANK45  BANK4
      +6  BANK47  BANK48  BANK49  BANK50  BANK51  BANK52  BANK53  BANK54
  3193 ;;      Params:         0       0       0       0       0       0       0       0       0       0       0       0       
      +0       0       0       0       0       0       0       0       0       0       0       0       0       0       0       
      +0       0       0       0       0       0       0       0       0       0       0       0       0       0       0       
      +0       0       0       0       0       0       0       0       0
  3194 ;;      Locals:         0       0       0       0       0       0       0       0       0       0       0       0       
      +0       0       0       0       0       0       0       0       0       0       0       0       0       0       0       
      +0       0       0       0       0       0       0       0       0       0       0       0       0       0       0       
      +0       0       0       0       0       0       0       0       0
  3195 ;;      Temps:          2       0       0       0       0       0       0       0       0       0       0       0       
      +0       0       0       0       0       0       0       0       0       0       0       0       0       0       0       
      +0       0       0       0       0       0       0       0       0       0       0       0       0       0       0       
      +0       0       0       0       0       0       0       0       0
  3196 ;;      Totals:         2       0       0       0       0       0       0       0       0       0       0       0       
      +0       0       0       0       0       0       0       0       0       0       0       0       0       0       0       
      +0       0       0       0       0       0       0       0       0       0       0       0       0       0       0       
      +0       0       0       0       0       0       0       0       0
  3197 ;;Total ram usage:        2 bytes
  3198 ;; Hardware stack levels used: 1
  3199 ;; Hardware stack levels required when called: 3
  3200 ;; This function calls:
  3201 ;;		Absolute function
  3202 ;;		_UART2_Receive_ISR
  3203 ;; This function is called by:
  3204 ;;		Interrupt level 2
  3205 ;; This function uses a non-reentrant model
  3206 ;;
  3207                           
  3208                           	psect	text35
  3209  003CE0                     __ptext35:
  3210                           	callstack 0
  3211  003CE0                     _UART2_rx_vect_isr:
  3212                           	callstack 119
  3213                           
  3214                           ;incstack = 0
  3215  003CE0  0061 F3E8  F529    	movff	pclath,??_UART2_rx_vect_isr
  3216  003CE6  0061 F3EC  F52A    	movff	pclatu,??_UART2_rx_vect_isr+1
  3217  003CEC                     
  3218                           ;mcc_generated_files/uart2.c: 235:     if(UART2_RxInterruptHandler)
  3219  003CEC  501F               	movf	_UART2_RxInterruptHandler^(0+1280),w,c
  3220  003CEE  1020               	iorwf	(_UART2_RxInterruptHandler+1)^(0+1280),w,c
  3221  003CF0  1021               	iorwf	(_UART2_RxInterruptHandler+2)^(0+1280),w,c
  3222  003CF2  B4D8               	btfsc	status,2,c
  3223  003CF4  EF7E  F01E         	goto	i2u155_41
  3224  003CF8  EF80  F01E         	goto	i2u155_40
  3225  003CFC                     i2u155_41:
  3226  003CFC  EF8D  F01E         	goto	i2l565
  3227  003D00                     i2u155_40:
  3228  003D00                     
  3229                           ;mcc_generated_files/uart2.c: 236:     {;mcc_generated_files/uart2.c: 237:         UART2
      +                          _RxInterruptHandler();
  3230  003D00  D802               	call	i2u156_48
  3231  003D02  EF8D  F01E         	goto	i2u156_49
  3232  003D06                     i2u156_48:
  3233  003D06  0005               	push	
  3234  003D08  6EFA               	movwf	pclath,c
  3235  003D0A  501F               	movf	_UART2_RxInterruptHandler^(0+1280),w,c
  3236  003D0C  6EFD               	movwf	tosl,c
  3237  003D0E  5020               	movf	(_UART2_RxInterruptHandler+1)^(0+1280),w,c
  3238  003D10  6EFE               	movwf	tosh,c
  3239  003D12  5021               	movf	(_UART2_RxInterruptHandler+2)^(0+1280),w,c
  3240  003D14  6EFF               	movwf	tosu,c
  3241  003D16  50FA               	movf	pclath,w,c
  3242  003D18  0012               	return		;indir
  3243  003D1A                     i2u156_49:
  3244  003D1A                     i2l565:
  3245  003D1A  0061  F4A8  F4FB   	movff	??_UART2_rx_vect_isr+1,pclatu
  3246  003D20  0061  F4A4  F4FA   	movff	??_UART2_rx_vect_isr,pclath
  3247  003D26  0011               	retfie		f
  3248  003D28                     __end_of_UART2_rx_vect_isr:
  3249                           	callstack 0
  3250                           
  3251 ;; *************** function _UART2_Receive_ISR *****************
  3252 ;; Defined at:
  3253 ;;		line 263 in file "mcc_generated_files/uart2.c"
  3254 ;; Parameters:    Size  Location     Type
  3255 ;;		None
  3256 ;; Auto vars:     Size  Location     Type
  3257 ;;		None
  3258 ;; Return value:  Size  Location     Type
  3259 ;;                  1    wreg      void 
  3260 ;; Registers used:
  3261 ;;		wreg, fsr2l, fsr2h, status,2, status,0, pcl, pclath, pclatu, tosl, cstack
  3262 ;; Tracked objects:
  3263 ;;		On entry : 0/0
  3264 ;;		On exit  : 0/0
  3265 ;;		Unchanged: 0/0
  3266 ;; Data sizes:     COMRAM   BANK5   BANK6   BANK7   BANK8   BANK9  BANK10  BANK11  BANK12  BANK13  BANK14  BANK15  BANK1
      +6  BANK17  BANK18  BANK19  BANK20  BANK21  BANK22  BANK23  BANK24  BANK25  BANK26  BANK27  BANK28  BANK29  BANK30  BANK3
      +1  BANK32  BANK33  BANK34  BANK35  BANK36  BANK37  BANK38  BANK39  BANK40  BANK41  BANK42  BANK43  BANK44  BANK45  BANK4
      +6  BANK47  BANK48  BANK49  BANK50  BANK51  BANK52  BANK53  BANK54
  3267 ;;      Params:         0       0       0       0       0       0       0       0       0       0       0       0       
      +0       0       0       0       0       0       0       0       0       0       0       0       0       0       0       
      +0       0       0       0       0       0       0       0       0       0       0       0       0       0       0       
      +0       0       0       0       0       0       0       0       0
  3268 ;;      Locals:         0       0       0       0       0       0       0       0       0       0       0       0       
      +0       0       0       0       0       0       0       0       0       0       0       0       0       0       0       
      +0       0       0       0       0       0       0       0       0       0       0       0       0       0       0       
      +0       0       0       0       0       0       0       0       0
  3269 ;;      Temps:          0       0       0       0       0       0       0       0       0       0       0       0       
      +0       0       0       0       0       0       0       0       0       0       0       0       0       0       0       
      +0       0       0       0       0       0       0       0       0       0       0       0       0       0       0       
      +0       0       0       0       0       0       0       0       0
  3270 ;;      Totals:         0       0       0       0       0       0       0       0       0       0       0       0       
      +0       0       0       0       0       0       0       0       0       0       0       0       0       0       0       
      +0       0       0       0       0       0       0       0       0       0       0       0       0       0       0       
      +0       0       0       0       0       0       0       0       0
  3271 ;;Total ram usage:        0 bytes
  3272 ;; Hardware stack levels used: 1
  3273 ;; Hardware stack levels required when called: 2
  3274 ;; This function calls:
  3275 ;;		Absolute function
  3276 ;;		_UART2_DefaultErrorHandler
  3277 ;;		_UART2_DefaultFramingErrorHandler
  3278 ;;		_UART2_DefaultOverrunErrorHandler
  3279 ;;		_UART2_RxDataHandler
  3280 ;; This function is called by:
  3281 ;;		_UART2_Initialize
  3282 ;;		_UART2_rx_vect_isr
  3283 ;; This function uses a non-reentrant model
  3284 ;;
  3285                           
  3286                           	psect	text36
  3287  003714                     __ptext36:
  3288                           	callstack 0
  3289  003714                     _UART2_Receive_ISR:
  3290                           	callstack 119
  3291  003714                     
  3292                           ;mcc_generated_files/uart2.c: 266:     uart2RxStatusBuffer[uart2RxHead].status = 0;
  3293  003714  0EA0               	movlw	low _uart2RxStatusBuffer
  3294  003716  243B               	addwf	_uart2RxHead^(0+1280),w,c	;volatile
  3295  003718  6ED9               	movwf	fsr2l,c
  3296  00371A  6ADA               	clrf	fsr2h,c
  3297  00371C  0E05               	movlw	high _uart2RxStatusBuffer
  3298  00371E  22DA               	addwfc	fsr2h,f,c
  3299  003720  0E00               	movlw	0
  3300  003722  6EDF               	movwf	indf2,c
  3301  003724                     
  3302                           ;mcc_generated_files/uart2.c: 268:     if(U2ERRIRbits.FERIF){
  3303  003724  0102               	movlb	2	; () banked
  3304  003726  A7C5               	btfss	197,3,b	;volatile
  3305  003728  EF98  F01B         	goto	i2u125_41
  3306  00372C  EF9A  F01B         	goto	i2u125_40
  3307  003730                     i2u125_41:
  3308  003730  EFAF  F01B         	goto	i2l2469
  3309  003734                     i2u125_40:
  3310  003734                     
  3311                           ; BSR set to: 2
  3312                           ;mcc_generated_files/uart2.c: 269:         uart2RxStatusBuffer[uart2RxHead].ferr = 1;
  3313  003734  0EA0               	movlw	low _uart2RxStatusBuffer
  3314  003736  243B               	addwf	_uart2RxHead^(0+1280),w,c	;volatile
  3315  003738  6ED9               	movwf	fsr2l,c
  3316  00373A  6ADA               	clrf	fsr2h,c
  3317  00373C  0E05               	movlw	high _uart2RxStatusBuffer
  3318  00373E  22DA               	addwfc	fsr2h,f,c
  3319  003740  0105               	movlb	5	; () banked
  3320  003742  82DF               	bsf	indf2,1,c
  3321  003744                     
  3322                           ; BSR set to: 5
  3323                           ;mcc_generated_files/uart2.c: 270:         UART2_FramingErrorHandler();
  3324  003744  D802               	call	i2u126_48
  3325  003746  EFAF  F01B         	goto	i2u126_49
  3326  00374A                     i2u126_48:
  3327  00374A  0005               	push	
  3328  00374C  6EFA               	movwf	pclath,c
  3329  00374E  5010               	movf	_UART2_FramingErrorHandler^(0+1280),w,c
  3330  003750  6EFD               	movwf	tosl,c
  3331  003752  5011               	movf	(_UART2_FramingErrorHandler+1)^(0+1280),w,c
  3332  003754  6EFE               	movwf	tosh,c
  3333  003756  5012               	movf	(_UART2_FramingErrorHandler+2)^(0+1280),w,c
  3334  003758  6EFF               	movwf	tosu,c
  3335  00375A  50FA               	movf	pclath,w,c
  3336  00375C  0012               	return		;indir
  3337  00375E                     i2u126_49:
  3338  00375E                     i2l2469:
  3339                           
  3340                           ;mcc_generated_files/uart2.c: 273:     if(U2ERRIRbits.RXFOIF){
  3341  00375E  0102               	movlb	2	; () banked
  3342  003760  A3C5               	btfss	197,1,b	;volatile
  3343  003762  EFB5  F01B         	goto	i2u127_41
  3344  003766  EFB7  F01B         	goto	i2u127_40
  3345  00376A                     i2u127_41:
  3346  00376A  EFCC  F01B         	goto	i2l2475
  3347  00376E                     i2u127_40:
  3348  00376E                     
  3349                           ; BSR set to: 2
  3350                           ;mcc_generated_files/uart2.c: 274:         uart2RxStatusBuffer[uart2RxHead].oerr = 1;
  3351  00376E  0EA0               	movlw	low _uart2RxStatusBuffer
  3352  003770  243B               	addwf	_uart2RxHead^(0+1280),w,c	;volatile
  3353  003772  6ED9               	movwf	fsr2l,c
  3354  003774  6ADA               	clrf	fsr2h,c
  3355  003776  0E05               	movlw	high _uart2RxStatusBuffer
  3356  003778  22DA               	addwfc	fsr2h,f,c
  3357  00377A  0105               	movlb	5	; () banked
  3358  00377C  84DF               	bsf	indf2,2,c
  3359  00377E                     
  3360                           ; BSR set to: 5
  3361                           ;mcc_generated_files/uart2.c: 275:         UART2_OverrunErrorHandler();
  3362  00377E  D802               	call	i2u128_48
  3363  003780  EFCC  F01B         	goto	i2u128_49
  3364  003784                     i2u128_48:
  3365  003784  0005               	push	
  3366  003786  6EFA               	movwf	pclath,c
  3367  003788  500D               	movf	_UART2_OverrunErrorHandler^(0+1280),w,c
  3368  00378A  6EFD               	movwf	tosl,c
  3369  00378C  500E               	movf	(_UART2_OverrunErrorHandler+1)^(0+1280),w,c
  3370  00378E  6EFE               	movwf	tosh,c
  3371  003790  500F               	movf	(_UART2_OverrunErrorHandler+2)^(0+1280),w,c
  3372  003792  6EFF               	movwf	tosu,c
  3373  003794  50FA               	movf	pclath,w,c
  3374  003796  0012               	return		;indir
  3375  003798                     i2u128_49:
  3376  003798                     i2l2475:
  3377                           
  3378                           ;mcc_generated_files/uart2.c: 278:     if(uart2RxStatusBuffer[uart2RxHead].status){
  3379  003798  0EA0               	movlw	low _uart2RxStatusBuffer
  3380  00379A  243B               	addwf	_uart2RxHead^(0+1280),w,c	;volatile
  3381  00379C  6ED9               	movwf	fsr2l,c
  3382  00379E  6ADA               	clrf	fsr2h,c
  3383  0037A0  0E05               	movlw	high _uart2RxStatusBuffer
  3384  0037A2  22DA               	addwfc	fsr2h,f,c
  3385  0037A4  50DF               	movf	indf2,w,c
  3386  0037A6  B4D8               	btfsc	status,2,c
  3387  0037A8  EFD8  F01B         	goto	i2u129_41
  3388  0037AC  EFDA  F01B         	goto	i2u129_40
  3389  0037B0                     i2u129_41:
  3390  0037B0  EFE9  F01B         	goto	i2l2479
  3391  0037B4                     i2u129_40:
  3392  0037B4                     
  3393                           ;mcc_generated_files/uart2.c: 279:         UART2_ErrorHandler();
  3394  0037B4  D802               	call	i2u130_48
  3395  0037B6  EFE7  F01B         	goto	i2u130_49
  3396  0037BA                     i2u130_48:
  3397  0037BA  0005               	push	
  3398  0037BC  6EFA               	movwf	pclath,c
  3399  0037BE  500A               	movf	_UART2_ErrorHandler^(0+1280),w,c
  3400  0037C0  6EFD               	movwf	tosl,c
  3401  0037C2  500B               	movf	(_UART2_ErrorHandler+1)^(0+1280),w,c
  3402  0037C4  6EFE               	movwf	tosh,c
  3403  0037C6  500C               	movf	(_UART2_ErrorHandler+2)^(0+1280),w,c
  3404  0037C8  6EFF               	movwf	tosu,c
  3405  0037CA  50FA               	movf	pclath,w,c
  3406  0037CC  0012               	return		;indir
  3407  0037CE                     i2u130_49:
  3408                           
  3409                           ;mcc_generated_files/uart2.c: 280:     } else {
  3410  0037CE  EFEB  F01B         	goto	i2l578
  3411  0037D2                     i2l2479:
  3412                           
  3413                           ;mcc_generated_files/uart2.c: 281:         UART2_RxDataHandler();
  3414  0037D2  EC82  F01F         	call	_UART2_RxDataHandler	;wreg free
  3415  0037D6                     i2l578:
  3416  0037D6  0012               	return		;funcret
  3417  0037D8                     __end_of_UART2_Receive_ISR:
  3418                           	callstack 0
  3419                           
  3420 ;; *************** function _UART2_DefaultOverrunErrorHandler *****************
  3421 ;; Defined at:
  3422 ;;		line 299 in file "mcc_generated_files/uart2.c"
  3423 ;; Parameters:    Size  Location     Type
  3424 ;;		None
  3425 ;; Auto vars:     Size  Location     Type
  3426 ;;		None
  3427 ;; Return value:  Size  Location     Type
  3428 ;;                  1    wreg      void 
  3429 ;; Registers used:
  3430 ;;		None
  3431 ;; Tracked objects:
  3432 ;;		On entry : 0/0
  3433 ;;		On exit  : 0/0
  3434 ;;		Unchanged: 0/0
  3435 ;; Data sizes:     COMRAM   BANK5   BANK6   BANK7   BANK8   BANK9  BANK10  BANK11  BANK12  BANK13  BANK14  BANK15  BANK1
      +6  BANK17  BANK18  BANK19  BANK20  BANK21  BANK22  BANK23  BANK24  BANK25  BANK26  BANK27  BANK28  BANK29  BANK30  BANK3
      +1  BANK32  BANK33  BANK34  BANK35  BANK36  BANK37  BANK38  BANK39  BANK40  BANK41  BANK42  BANK43  BANK44  BANK45  BANK4
      +6  BANK47  BANK48  BANK49  BANK50  BANK51  BANK52  BANK53  BANK54
  3436 ;;      Params:         0       0       0       0       0       0       0       0       0       0       0       0       
      +0       0       0       0       0       0       0       0       0       0       0       0       0       0       0       
      +0       0       0       0       0       0       0       0       0       0       0       0       0       0       0       
      +0       0       0       0       0       0       0       0       0
  3437 ;;      Locals:         0       0       0       0       0       0       0       0       0       0       0       0       
      +0       0       0       0       0       0       0       0       0       0       0       0       0       0       0       
      +0       0       0       0       0       0       0       0       0       0       0       0       0       0       0       
      +0       0       0       0       0       0       0       0       0
  3438 ;;      Temps:          0       0       0       0       0       0       0       0       0       0       0       0       
      +0       0       0       0       0       0       0       0       0       0       0       0       0       0       0       
      +0       0       0       0       0       0       0       0       0       0       0       0       0       0       0       
      +0       0       0       0       0       0       0       0       0
  3439 ;;      Totals:         0       0       0       0       0       0       0       0       0       0       0       0       
      +0       0       0       0       0       0       0       0       0       0       0       0       0       0       0       
      +0       0       0       0       0       0       0       0       0       0       0       0       0       0       0       
      +0       0       0       0       0       0       0       0       0
  3440 ;;Total ram usage:        0 bytes
  3441 ;; Hardware stack levels used: 1
  3442 ;; This function calls:
  3443 ;;		Nothing
  3444 ;; This function is called by:
  3445 ;;		_UART2_Initialize
  3446 ;;		_UART2_Receive_ISR
  3447 ;; This function uses a non-reentrant model
  3448 ;;
  3449                           
  3450                           	psect	text37
  3451  0040C6                     __ptext37:
  3452                           	callstack 0
  3453  0040C6                     _UART2_DefaultOverrunErrorHandler:
  3454                           	callstack 120
  3455  0040C6  0012               	return		;funcret
  3456  0040C8                     __end_of_UART2_DefaultOverrunErrorHandler:
  3457                           	callstack 0
  3458                           
  3459 ;; *************** function _UART2_DefaultFramingErrorHandler *****************
  3460 ;; Defined at:
  3461 ;;		line 297 in file "mcc_generated_files/uart2.c"
  3462 ;; Parameters:    Size  Location     Type
  3463 ;;		None
  3464 ;; Auto vars:     Size  Location     Type
  3465 ;;		None
  3466 ;; Return value:  Size  Location     Type
  3467 ;;                  1    wreg      void 
  3468 ;; Registers used:
  3469 ;;		None
  3470 ;; Tracked objects:
  3471 ;;		On entry : 0/0
  3472 ;;		On exit  : 0/0
  3473 ;;		Unchanged: 0/0
  3474 ;; Data sizes:     COMRAM   BANK5   BANK6   BANK7   BANK8   BANK9  BANK10  BANK11  BANK12  BANK13  BANK14  BANK15  BANK1
      +6  BANK17  BANK18  BANK19  BANK20  BANK21  BANK22  BANK23  BANK24  BANK25  BANK26  BANK27  BANK28  BANK29  BANK30  BANK3
      +1  BANK32  BANK33  BANK34  BANK35  BANK36  BANK37  BANK38  BANK39  BANK40  BANK41  BANK42  BANK43  BANK44  BANK45  BANK4
      +6  BANK47  BANK48  BANK49  BANK50  BANK51  BANK52  BANK53  BANK54
  3475 ;;      Params:         0       0       0       0       0       0       0       0       0       0       0       0       
      +0       0       0       0       0       0       0       0       0       0       0       0       0       0       0       
      +0       0       0       0       0       0       0       0       0       0       0       0       0       0       0       
      +0       0       0       0       0       0       0       0       0
  3476 ;;      Locals:         0       0       0       0       0       0       0       0       0       0       0       0       
      +0       0       0       0       0       0       0       0       0       0       0       0       0       0       0       
      +0       0       0       0       0       0       0       0       0       0       0       0       0       0       0       
      +0       0       0       0       0       0       0       0       0
  3477 ;;      Temps:          0       0       0       0       0       0       0       0       0       0       0       0       
      +0       0       0       0       0       0       0       0       0       0       0       0       0       0       0       
      +0       0       0       0       0       0       0       0       0       0       0       0       0       0       0       
      +0       0       0       0       0       0       0       0       0
  3478 ;;      Totals:         0       0       0       0       0       0       0       0       0       0       0       0       
      +0       0       0       0       0       0       0       0       0       0       0       0       0       0       0       
      +0       0       0       0       0       0       0       0       0       0       0       0       0       0       0       
      +0       0       0       0       0       0       0       0       0
  3479 ;;Total ram usage:        0 bytes
  3480 ;; Hardware stack levels used: 1
  3481 ;; This function calls:
  3482 ;;		Nothing
  3483 ;; This function is called by:
  3484 ;;		_UART2_Initialize
  3485 ;;		_UART2_Receive_ISR
  3486 ;; This function uses a non-reentrant model
  3487 ;;
  3488                           
  3489                           	psect	text38
  3490  0040C8                     __ptext38:
  3491                           	callstack 0
  3492  0040C8                     _UART2_DefaultFramingErrorHandler:
  3493                           	callstack 120
  3494  0040C8  0012               	return		;funcret
  3495  0040CA                     __end_of_UART2_DefaultFramingErrorHandler:
  3496                           	callstack 0
  3497                           
  3498 ;; *************** function _UART2_DefaultErrorHandler *****************
  3499 ;; Defined at:
  3500 ;;		line 301 in file "mcc_generated_files/uart2.c"
  3501 ;; Parameters:    Size  Location     Type
  3502 ;;		None
  3503 ;; Auto vars:     Size  Location     Type
  3504 ;;		None
  3505 ;; Return value:  Size  Location     Type
  3506 ;;                  1    wreg      void 
  3507 ;; Registers used:
  3508 ;;		wreg, fsr2l, fsr2h, status,2, status,0, cstack
  3509 ;; Tracked objects:
  3510 ;;		On entry : 0/0
  3511 ;;		On exit  : 0/0
  3512 ;;		Unchanged: 0/0
  3513 ;; Data sizes:     COMRAM   BANK5   BANK6   BANK7   BANK8   BANK9  BANK10  BANK11  BANK12  BANK13  BANK14  BANK15  BANK1
      +6  BANK17  BANK18  BANK19  BANK20  BANK21  BANK22  BANK23  BANK24  BANK25  BANK26  BANK27  BANK28  BANK29  BANK30  BANK3
      +1  BANK32  BANK33  BANK34  BANK35  BANK36  BANK37  BANK38  BANK39  BANK40  BANK41  BANK42  BANK43  BANK44  BANK45  BANK4
      +6  BANK47  BANK48  BANK49  BANK50  BANK51  BANK52  BANK53  BANK54
  3514 ;;      Params:         0       0       0       0       0       0       0       0       0       0       0       0       
      +0       0       0       0       0       0       0       0       0       0       0       0       0       0       0       
      +0       0       0       0       0       0       0       0       0       0       0       0       0       0       0       
      +0       0       0       0       0       0       0       0       0
  3515 ;;      Locals:         0       0       0       0       0       0       0       0       0       0       0       0       
      +0       0       0       0       0       0       0       0       0       0       0       0       0       0       0       
      +0       0       0       0       0       0       0       0       0       0       0       0       0       0       0       
      +0       0       0       0       0       0       0       0       0
  3516 ;;      Temps:          0       0       0       0       0       0       0       0       0       0       0       0       
      +0       0       0       0       0       0       0       0       0       0       0       0       0       0       0       
      +0       0       0       0       0       0       0       0       0       0       0       0       0       0       0       
      +0       0       0       0       0       0       0       0       0
  3517 ;;      Totals:         0       0       0       0       0       0       0       0       0       0       0       0       
      +0       0       0       0       0       0       0       0       0       0       0       0       0       0       0       
      +0       0       0       0       0       0       0       0       0       0       0       0       0       0       0       
      +0       0       0       0       0       0       0       0       0
  3518 ;;Total ram usage:        0 bytes
  3519 ;; Hardware stack levels used: 1
  3520 ;; Hardware stack levels required when called: 1
  3521 ;; This function calls:
  3522 ;;		_UART2_RxDataHandler
  3523 ;; This function is called by:
  3524 ;;		_UART2_Initialize
  3525 ;;		_UART2_Receive_ISR
  3526 ;; This function uses a non-reentrant model
  3527 ;;
  3528                           
  3529                           	psect	text39
  3530  0040B0                     __ptext39:
  3531                           	callstack 0
  3532  0040B0                     _UART2_DefaultErrorHandler:
  3533                           	callstack 119
  3534  0040B0                     
  3535                           ;mcc_generated_files/uart2.c: 302:     UART2_RxDataHandler();
  3536  0040B0  EC82  F01F         	call	_UART2_RxDataHandler	;wreg free
  3537  0040B4  0012               	return		;funcret
  3538  0040B6                     __end_of_UART2_DefaultErrorHandler:
  3539                           	callstack 0
  3540                           
  3541 ;; *************** function _UART2_RxDataHandler *****************
  3542 ;; Defined at:
  3543 ;;		line 287 in file "mcc_generated_files/uart2.c"
  3544 ;; Parameters:    Size  Location     Type
  3545 ;;		None
  3546 ;; Auto vars:     Size  Location     Type
  3547 ;;		None
  3548 ;; Return value:  Size  Location     Type
  3549 ;;                  1    wreg      void 
  3550 ;; Registers used:
  3551 ;;		wreg, fsr2l, fsr2h, status,2, status,0
  3552 ;; Tracked objects:
  3553 ;;		On entry : 0/0
  3554 ;;		On exit  : 0/0
  3555 ;;		Unchanged: 0/0
  3556 ;; Data sizes:     COMRAM   BANK5   BANK6   BANK7   BANK8   BANK9  BANK10  BANK11  BANK12  BANK13  BANK14  BANK15  BANK1
      +6  BANK17  BANK18  BANK19  BANK20  BANK21  BANK22  BANK23  BANK24  BANK25  BANK26  BANK27  BANK28  BANK29  BANK30  BANK3
      +1  BANK32  BANK33  BANK34  BANK35  BANK36  BANK37  BANK38  BANK39  BANK40  BANK41  BANK42  BANK43  BANK44  BANK45  BANK4
      +6  BANK47  BANK48  BANK49  BANK50  BANK51  BANK52  BANK53  BANK54
  3557 ;;      Params:         0       0       0       0       0       0       0       0       0       0       0       0       
      +0       0       0       0       0       0       0       0       0       0       0       0       0       0       0       
      +0       0       0       0       0       0       0       0       0       0       0       0       0       0       0       
      +0       0       0       0       0       0       0       0       0
  3558 ;;      Locals:         0       0       0       0       0       0       0       0       0       0       0       0       
      +0       0       0       0       0       0       0       0       0       0       0       0       0       0       0       
      +0       0       0       0       0       0       0       0       0       0       0       0       0       0       0       
      +0       0       0       0       0       0       0       0       0
  3559 ;;      Temps:          0       0       0       0       0       0       0       0       0       0       0       0       
      +0       0       0       0       0       0       0       0       0       0       0       0       0       0       0       
      +0       0       0       0       0       0       0       0       0       0       0       0       0       0       0       
      +0       0       0       0       0       0       0       0       0
  3560 ;;      Totals:         0       0       0       0       0       0       0       0       0       0       0       0       
      +0       0       0       0       0       0       0       0       0       0       0       0       0       0       0       
      +0       0       0       0       0       0       0       0       0       0       0       0       0       0       0       
      +0       0       0       0       0       0       0       0       0
  3561 ;;Total ram usage:        0 bytes
  3562 ;; Hardware stack levels used: 1
  3563 ;; This function calls:
  3564 ;;		Nothing
  3565 ;; This function is called by:
  3566 ;;		_UART2_Receive_ISR
  3567 ;;		_UART2_DefaultErrorHandler
  3568 ;; This function uses a non-reentrant model
  3569 ;;
  3570                           
  3571                           	psect	text40
  3572  003F04                     __ptext40:
  3573                           	callstack 0
  3574  003F04                     _UART2_RxDataHandler:
  3575                           	callstack 120
  3576  003F04                     
  3577                           ;mcc_generated_files/uart2.c: 289:     uart2RxBuffer[uart2RxHead++] = U2RXB;
  3578  003F04  0E80               	movlw	low _uart2RxBuffer
  3579  003F06  243B               	addwf	_uart2RxHead^(0+1280),w,c	;volatile
  3580  003F08  6ED9               	movwf	fsr2l,c
  3581  003F0A  6ADA               	clrf	fsr2h,c
  3582  003F0C  0E06               	movlw	high _uart2RxBuffer
  3583  003F0E  22DA               	addwfc	fsr2h,f,c
  3584  003F10  C2B4 F4DF          	movff	692,indf2	;volatile
  3585  003F14  2A3B               	incf	_uart2RxHead^(0+1280),f,c	;volatile
  3586  003F16                     
  3587                           ;mcc_generated_files/uart2.c: 290:     if(sizeof(uart2RxBuffer) <= uart2RxHead)
  3588  003F16  0E3F               	movlw	63
  3589  003F18  643B               	cpfsgt	_uart2RxHead^(0+1280),c	;volatile
  3590  003F1A  EF91  F01F         	goto	i2u99_41
  3591  003F1E  EF93  F01F         	goto	i2u99_40
  3592  003F22                     i2u99_41:
  3593  003F22  EF95  F01F         	goto	i2l2237
  3594  003F26                     i2u99_40:
  3595  003F26                     
  3596                           ;mcc_generated_files/uart2.c: 291:     {;mcc_generated_files/uart2.c: 292:         uart2
      +                          RxHead = 0;
  3597  003F26  0E00               	movlw	0
  3598  003F28  6E3B               	movwf	_uart2RxHead^(0+1280),c	;volatile
  3599  003F2A                     i2l2237:
  3600                           
  3601                           ;mcc_generated_files/uart2.c: 294:     uart2RxCount++;
  3602  003F2A  2A39               	incf	_uart2RxCount^(0+1280),f,c	;volatile
  3603  003F2C  0012               	return		;funcret
  3604  003F2E                     __end_of_UART2_RxDataHandler:
  3605                           	callstack 0
  3606                           
  3607 ;; *************** function _UART1_tx_vect_isr *****************
  3608 ;; Defined at:
  3609 ;;		line 225 in file "mcc_generated_files/uart1.c"
  3610 ;; Parameters:    Size  Location     Type
  3611 ;;		None
  3612 ;; Auto vars:     Size  Location     Type
  3613 ;;		None
  3614 ;; Return value:  Size  Location     Type
  3615 ;;                  1    wreg      void 
  3616 ;; Registers used:
  3617 ;;		wreg, fsr2l, fsr2h, status,2, status,0, pcl, pclath, pclatu, tosl, cstack
  3618 ;; Tracked objects:
  3619 ;;		On entry : 0/0
  3620 ;;		On exit  : 0/0
  3621 ;;		Unchanged: 0/0
  3622 ;; Data sizes:     COMRAM   BANK5   BANK6   BANK7   BANK8   BANK9  BANK10  BANK11  BANK12  BANK13  BANK14  BANK15  BANK1
      +6  BANK17  BANK18  BANK19  BANK20  BANK21  BANK22  BANK23  BANK24  BANK25  BANK26  BANK27  BANK28  BANK29  BANK30  BANK3
      +1  BANK32  BANK33  BANK34  BANK35  BANK36  BANK37  BANK38  BANK39  BANK40  BANK41  BANK42  BANK43  BANK44  BANK45  BANK4
      +6  BANK47  BANK48  BANK49  BANK50  BANK51  BANK52  BANK53  BANK54
  3623 ;;      Params:         0       0       0       0       0       0       0       0       0       0       0       0       
      +0       0       0       0       0       0       0       0       0       0       0       0       0       0       0       
      +0       0       0       0       0       0       0       0       0       0       0       0       0       0       0       
      +0       0       0       0       0       0       0       0       0
  3624 ;;      Locals:         0       0       0       0       0       0       0       0       0       0       0       0       
      +0       0       0       0       0       0       0       0       0       0       0       0       0       0       0       
      +0       0       0       0       0       0       0       0       0       0       0       0       0       0       0       
      +0       0       0       0       0       0       0       0       0
  3625 ;;      Temps:          2       0       0       0       0       0       0       0       0       0       0       0       
      +0       0       0       0       0       0       0       0       0       0       0       0       0       0       0       
      +0       0       0       0       0       0       0       0       0       0       0       0       0       0       0       
      +0       0       0       0       0       0       0       0       0
  3626 ;;      Totals:         2       0       0       0       0       0       0       0       0       0       0       0       
      +0       0       0       0       0       0       0       0       0       0       0       0       0       0       0       
      +0       0       0       0       0       0       0       0       0       0       0       0       0       0       0       
      +0       0       0       0       0       0       0       0       0
  3627 ;;Total ram usage:        2 bytes
  3628 ;; Hardware stack levels used: 1
  3629 ;; Hardware stack levels required when called: 1
  3630 ;; This function calls:
  3631 ;;		Absolute function
  3632 ;;		_UART1_Transmit_ISR
  3633 ;; This function is called by:
  3634 ;;		Interrupt level 2
  3635 ;; This function uses a non-reentrant model
  3636 ;;
  3637                           
  3638                           	psect	text41
  3639  003D28                     __ptext41:
  3640                           	callstack 0
  3641  003D28                     _UART1_tx_vect_isr:
  3642                           	callstack 121
  3643                           
  3644                           ;incstack = 0
  3645  003D28  0061 F3E8  F52B    	movff	pclath,??_UART1_tx_vect_isr
  3646  003D2E  0061 F3EC  F52C    	movff	pclatu,??_UART1_tx_vect_isr+1
  3647  003D34                     
  3648                           ;mcc_generated_files/uart1.c: 227:     if(UART1_TxInterruptHandler)
  3649  003D34  5016               	movf	_UART1_TxInterruptHandler^(0+1280),w,c
  3650  003D36  1017               	iorwf	(_UART1_TxInterruptHandler+1)^(0+1280),w,c
  3651  003D38  1018               	iorwf	(_UART1_TxInterruptHandler+2)^(0+1280),w,c
  3652  003D3A  B4D8               	btfsc	status,2,c
  3653  003D3C  EFA2  F01E         	goto	i2u162_41
  3654  003D40  EFA4  F01E         	goto	i2u162_40
  3655  003D44                     i2u162_41:
  3656  003D44  EFB1  F01E         	goto	i2l733
  3657  003D48                     i2u162_40:
  3658  003D48                     
  3659                           ;mcc_generated_files/uart1.c: 228:     {;mcc_generated_files/uart1.c: 229:         UART1
      +                          _TxInterruptHandler();
  3660  003D48  D802               	call	i2u163_48
  3661  003D4A  EFB1  F01E         	goto	i2u163_49
  3662  003D4E                     i2u163_48:
  3663  003D4E  0005               	push	
  3664  003D50  6EFA               	movwf	pclath,c
  3665  003D52  5016               	movf	_UART1_TxInterruptHandler^(0+1280),w,c
  3666  003D54  6EFD               	movwf	tosl,c
  3667  003D56  5017               	movf	(_UART1_TxInterruptHandler+1)^(0+1280),w,c
  3668  003D58  6EFE               	movwf	tosh,c
  3669  003D5A  5018               	movf	(_UART1_TxInterruptHandler+2)^(0+1280),w,c
  3670  003D5C  6EFF               	movwf	tosu,c
  3671  003D5E  50FA               	movf	pclath,w,c
  3672  003D60  0012               	return		;indir
  3673  003D62                     i2u163_49:
  3674  003D62                     i2l733:
  3675  003D62  0061  F4B0  F4FB   	movff	??_UART1_tx_vect_isr+1,pclatu
  3676  003D68  0061  F4AC  F4FA   	movff	??_UART1_tx_vect_isr,pclath
  3677  003D6E  0011               	retfie		f
  3678  003D70                     __end_of_UART1_tx_vect_isr:
  3679                           	callstack 0
  3680                           
  3681 ;; *************** function _UART1_Transmit_ISR *****************
  3682 ;; Defined at:
  3683 ;;		line 243 in file "mcc_generated_files/uart1.c"
  3684 ;; Parameters:    Size  Location     Type
  3685 ;;		None
  3686 ;; Auto vars:     Size  Location     Type
  3687 ;;		None
  3688 ;; Return value:  Size  Location     Type
  3689 ;;                  1    wreg      void 
  3690 ;; Registers used:
  3691 ;;		wreg, fsr2l, fsr2h, status,2, status,0
  3692 ;; Tracked objects:
  3693 ;;		On entry : 0/0
  3694 ;;		On exit  : 0/0
  3695 ;;		Unchanged: 0/0
  3696 ;; Data sizes:     COMRAM   BANK5   BANK6   BANK7   BANK8   BANK9  BANK10  BANK11  BANK12  BANK13  BANK14  BANK15  BANK1
      +6  BANK17  BANK18  BANK19  BANK20  BANK21  BANK22  BANK23  BANK24  BANK25  BANK26  BANK27  BANK28  BANK29  BANK30  BANK3
      +1  BANK32  BANK33  BANK34  BANK35  BANK36  BANK37  BANK38  BANK39  BANK40  BANK41  BANK42  BANK43  BANK44  BANK45  BANK4
      +6  BANK47  BANK48  BANK49  BANK50  BANK51  BANK52  BANK53  BANK54
  3697 ;;      Params:         0       0       0       0       0       0       0       0       0       0       0       0       
      +0       0       0       0       0       0       0       0       0       0       0       0       0       0       0       
      +0       0       0       0       0       0       0       0       0       0       0       0       0       0       0       
      +0       0       0       0       0       0       0       0       0
  3698 ;;      Locals:         0       0       0       0       0       0       0       0       0       0       0       0       
      +0       0       0       0       0       0       0       0       0       0       0       0       0       0       0       
      +0       0       0       0       0       0       0       0       0       0       0       0       0       0       0       
      +0       0       0       0       0       0       0       0       0
  3699 ;;      Temps:          0       0       0       0       0       0       0       0       0       0       0       0       
      +0       0       0       0       0       0       0       0       0       0       0       0       0       0       0       
      +0       0       0       0       0       0       0       0       0       0       0       0       0       0       0       
      +0       0       0       0       0       0       0       0       0
  3700 ;;      Totals:         0       0       0       0       0       0       0       0       0       0       0       0       
      +0       0       0       0       0       0       0       0       0       0       0       0       0       0       0       
      +0       0       0       0       0       0       0       0       0       0       0       0       0       0       0       
      +0       0       0       0       0       0       0       0       0
  3701 ;;Total ram usage:        0 bytes
  3702 ;; Hardware stack levels used: 1
  3703 ;; This function calls:
  3704 ;;		Nothing
  3705 ;; This function is called by:
  3706 ;;		_UART1_Initialize
  3707 ;;		_UART1_tx_vect_isr
  3708 ;; This function uses a non-reentrant model
  3709 ;;
  3710                           
  3711                           	psect	text42
  3712  003E40                     __ptext42:
  3713                           	callstack 0
  3714  003E40                     _UART1_Transmit_ISR:
  3715                           	callstack 121
  3716  003E40                     
  3717                           ;mcc_generated_files/uart1.c: 246:     if(sizeof(uart1TxBuffer) > uart1TxBufferRemaining
      +                          )
  3718  003E40  0E40               	movlw	64
  3719  003E42  6022               	cpfslt	_uart1TxBufferRemaining^(0+1280),c	;volatile
  3720  003E44  EF26  F01F         	goto	i2u131_41
  3721  003E48  EF28  F01F         	goto	i2u131_40
  3722  003E4C                     i2u131_41:
  3723  003E4C  EF3F  F01F         	goto	i2l742
  3724  003E50                     i2u131_40:
  3725  003E50                     
  3726                           ;mcc_generated_files/uart1.c: 247:     {;mcc_generated_files/uart1.c: 248:         U1TXB
      +                           = uart1TxBuffer[uart1TxTail++];
  3727  003E50  0E40               	movlw	low _uart1TxBuffer
  3728  003E52  2436               	addwf	_uart1TxTail^(0+1280),w,c	;volatile
  3729  003E54  6ED9               	movwf	fsr2l,c
  3730  003E56  6ADA               	clrf	fsr2h,c
  3731  003E58  0E06               	movlw	high _uart1TxBuffer
  3732  003E5A  22DA               	addwfc	fsr2h,f,c
  3733  003E5C  50DF               	movf	indf2,w,c
  3734  003E5E  0102               	movlb	2	; () banked
  3735  003E60  6FA3               	movwf	163,b	;volatile
  3736  003E62                     
  3737                           ; BSR set to: 2
  3738  003E62  2A36               	incf	_uart1TxTail^(0+1280),f,c	;volatile
  3739  003E64                     
  3740                           ; BSR set to: 2
  3741                           ;mcc_generated_files/uart1.c: 249:        if(sizeof(uart1TxBuffer) <= uart1TxTail)
  3742  003E64  0E3F               	movlw	63
  3743  003E66  6436               	cpfsgt	_uart1TxTail^(0+1280),c	;volatile
  3744  003E68  EF38  F01F         	goto	i2u132_41
  3745  003E6C  EF3A  F01F         	goto	i2u132_40
  3746  003E70                     i2u132_41:
  3747  003E70  EF3C  F01F         	goto	i2l2491
  3748  003E74                     i2u132_40:
  3749  003E74                     
  3750                           ; BSR set to: 2
  3751                           ;mcc_generated_files/uart1.c: 250:         {;mcc_generated_files/uart1.c: 251:          
      +                             uart1TxTail = 0;
  3752  003E74  0E00               	movlw	0
  3753  003E76  6E36               	movwf	_uart1TxTail^(0+1280),c	;volatile
  3754  003E78                     i2l2491:
  3755                           
  3756                           ; BSR set to: 2
  3757                           ;mcc_generated_files/uart1.c: 253:         uart1TxBufferRemaining++;
  3758  003E78  2A22               	incf	_uart1TxBufferRemaining^(0+1280),f,c	;volatile
  3759                           
  3760                           ;mcc_generated_files/uart1.c: 254:     }
  3761  003E7A  EF40  F01F         	goto	i2l745
  3762  003E7E                     i2l742:
  3763                           
  3764                           ;mcc_generated_files/uart1.c: 256:     {;mcc_generated_files/uart1.c: 257:         PIE4b
      +                          its.U1TXIE = 0;
  3765  003E7E  92A2               	bcf	162,1,c	;volatile
  3766  003E80                     i2l745:
  3767  003E80  0012               	return		;funcret
  3768  003E82                     __end_of_UART1_Transmit_ISR:
  3769                           	callstack 0
  3770                           
  3771 ;; *************** function _UART1_rx_vect_isr *****************
  3772 ;; Defined at:
  3773 ;;		line 233 in file "mcc_generated_files/uart1.c"
  3774 ;; Parameters:    Size  Location     Type
  3775 ;;		None
  3776 ;; Auto vars:     Size  Location     Type
  3777 ;;		None
  3778 ;; Return value:  Size  Location     Type
  3779 ;;                  1    wreg      void 
  3780 ;; Registers used:
  3781 ;;		wreg, fsr2l, fsr2h, status,2, status,0, pcl, pclath, pclatu, tosl, cstack
  3782 ;; Tracked objects:
  3783 ;;		On entry : 0/0
  3784 ;;		On exit  : 0/0
  3785 ;;		Unchanged: 0/0
  3786 ;; Data sizes:     COMRAM   BANK5   BANK6   BANK7   BANK8   BANK9  BANK10  BANK11  BANK12  BANK13  BANK14  BANK15  BANK1
      +6  BANK17  BANK18  BANK19  BANK20  BANK21  BANK22  BANK23  BANK24  BANK25  BANK26  BANK27  BANK28  BANK29  BANK30  BANK3
      +1  BANK32  BANK33  BANK34  BANK35  BANK36  BANK37  BANK38  BANK39  BANK40  BANK41  BANK42  BANK43  BANK44  BANK45  BANK4
      +6  BANK47  BANK48  BANK49  BANK50  BANK51  BANK52  BANK53  BANK54
  3787 ;;      Params:         0       0       0       0       0       0       0       0       0       0       0       0       
      +0       0       0       0       0       0       0       0       0       0       0       0       0       0       0       
      +0       0       0       0       0       0       0       0       0       0       0       0       0       0       0       
      +0       0       0       0       0       0       0       0       0
  3788 ;;      Locals:         0       0       0       0       0       0       0       0       0       0       0       0       
      +0       0       0       0       0       0       0       0       0       0       0       0       0       0       0       
      +0       0       0       0       0       0       0       0       0       0       0       0       0       0       0       
      +0       0       0       0       0       0       0       0       0
  3789 ;;      Temps:          2       0       0       0       0       0       0       0       0       0       0       0       
      +0       0       0       0       0       0       0       0       0       0       0       0       0       0       0       
      +0       0       0       0       0       0       0       0       0       0       0       0       0       0       0       
      +0       0       0       0       0       0       0       0       0
  3790 ;;      Totals:         2       0       0       0       0       0       0       0       0       0       0       0       
      +0       0       0       0       0       0       0       0       0       0       0       0       0       0       0       
      +0       0       0       0       0       0       0       0       0       0       0       0       0       0       0       
      +0       0       0       0       0       0       0       0       0
  3791 ;;Total ram usage:        2 bytes
  3792 ;; Hardware stack levels used: 1
  3793 ;; Hardware stack levels required when called: 3
  3794 ;; This function calls:
  3795 ;;		Absolute function
  3796 ;;		_UART1_Receive_ISR
  3797 ;; This function is called by:
  3798 ;;		Interrupt level 2
  3799 ;; This function uses a non-reentrant model
  3800 ;;
  3801                           
  3802                           	psect	text43
  3803  003D70                     __ptext43:
  3804                           	callstack 0
  3805  003D70                     _UART1_rx_vect_isr:
  3806                           	callstack 119
  3807                           
  3808                           ;incstack = 0
  3809  003D70  0061 F3E8  F52D    	movff	pclath,??_UART1_rx_vect_isr
  3810  003D76  0061 F3EC  F52E    	movff	pclatu,??_UART1_rx_vect_isr+1
  3811  003D7C                     
  3812                           ;mcc_generated_files/uart1.c: 235:     if(UART1_RxInterruptHandler)
  3813  003D7C  5019               	movf	_UART1_RxInterruptHandler^(0+1280),w,c
  3814  003D7E  101A               	iorwf	(_UART1_RxInterruptHandler+1)^(0+1280),w,c
  3815  003D80  101B               	iorwf	(_UART1_RxInterruptHandler+2)^(0+1280),w,c
  3816  003D82  B4D8               	btfsc	status,2,c
  3817  003D84  EFC6  F01E         	goto	i2u164_41
  3818  003D88  EFC8  F01E         	goto	i2u164_40
  3819  003D8C                     i2u164_41:
  3820  003D8C  EFD5  F01E         	goto	i2l739
  3821  003D90                     i2u164_40:
  3822  003D90                     
  3823                           ;mcc_generated_files/uart1.c: 236:     {;mcc_generated_files/uart1.c: 237:         UART1
      +                          _RxInterruptHandler();
  3824  003D90  D802               	call	i2u165_48
  3825  003D92  EFD5  F01E         	goto	i2u165_49
  3826  003D96                     i2u165_48:
  3827  003D96  0005               	push	
  3828  003D98  6EFA               	movwf	pclath,c
  3829  003D9A  5019               	movf	_UART1_RxInterruptHandler^(0+1280),w,c
  3830  003D9C  6EFD               	movwf	tosl,c
  3831  003D9E  501A               	movf	(_UART1_RxInterruptHandler+1)^(0+1280),w,c
  3832  003DA0  6EFE               	movwf	tosh,c
  3833  003DA2  501B               	movf	(_UART1_RxInterruptHandler+2)^(0+1280),w,c
  3834  003DA4  6EFF               	movwf	tosu,c
  3835  003DA6  50FA               	movf	pclath,w,c
  3836  003DA8  0012               	return		;indir
  3837  003DAA                     i2u165_49:
  3838  003DAA                     i2l739:
  3839  003DAA  0061  F4B8  F4FB   	movff	??_UART1_rx_vect_isr+1,pclatu
  3840  003DB0  0061  F4B4  F4FA   	movff	??_UART1_rx_vect_isr,pclath
  3841  003DB6  0011               	retfie		f
  3842  003DB8                     __end_of_UART1_rx_vect_isr:
  3843                           	callstack 0
  3844                           
  3845 ;; *************** function _UART1_Receive_ISR *****************
  3846 ;; Defined at:
  3847 ;;		line 263 in file "mcc_generated_files/uart1.c"
  3848 ;; Parameters:    Size  Location     Type
  3849 ;;		None
  3850 ;; Auto vars:     Size  Location     Type
  3851 ;;		None
  3852 ;; Return value:  Size  Location     Type
  3853 ;;                  1    wreg      void 
  3854 ;; Registers used:
  3855 ;;		wreg, fsr2l, fsr2h, status,2, status,0, pcl, pclath, pclatu, tosl, cstack
  3856 ;; Tracked objects:
  3857 ;;		On entry : 0/0
  3858 ;;		On exit  : 0/0
  3859 ;;		Unchanged: 0/0
  3860 ;; Data sizes:     COMRAM   BANK5   BANK6   BANK7   BANK8   BANK9  BANK10  BANK11  BANK12  BANK13  BANK14  BANK15  BANK1
      +6  BANK17  BANK18  BANK19  BANK20  BANK21  BANK22  BANK23  BANK24  BANK25  BANK26  BANK27  BANK28  BANK29  BANK30  BANK3
      +1  BANK32  BANK33  BANK34  BANK35  BANK36  BANK37  BANK38  BANK39  BANK40  BANK41  BANK42  BANK43  BANK44  BANK45  BANK4
      +6  BANK47  BANK48  BANK49  BANK50  BANK51  BANK52  BANK53  BANK54
  3861 ;;      Params:         0       0       0       0       0       0       0       0       0       0       0       0       
      +0       0       0       0       0       0       0       0       0       0       0       0       0       0       0       
      +0       0       0       0       0       0       0       0       0       0       0       0       0       0       0       
      +0       0       0       0       0       0       0       0       0
  3862 ;;      Locals:         0       0       0       0       0       0       0       0       0       0       0       0       
      +0       0       0       0       0       0       0       0       0       0       0       0       0       0       0       
      +0       0       0       0       0       0       0       0       0       0       0       0       0       0       0       
      +0       0       0       0       0       0       0       0       0
  3863 ;;      Temps:          0       0       0       0       0       0       0       0       0       0       0       0       
      +0       0       0       0       0       0       0       0       0       0       0       0       0       0       0       
      +0       0       0       0       0       0       0       0       0       0       0       0       0       0       0       
      +0       0       0       0       0       0       0       0       0
  3864 ;;      Totals:         0       0       0       0       0       0       0       0       0       0       0       0       
      +0       0       0       0       0       0       0       0       0       0       0       0       0       0       0       
      +0       0       0       0       0       0       0       0       0       0       0       0       0       0       0       
      +0       0       0       0       0       0       0       0       0
  3865 ;;Total ram usage:        0 bytes
  3866 ;; Hardware stack levels used: 1
  3867 ;; Hardware stack levels required when called: 2
  3868 ;; This function calls:
  3869 ;;		Absolute function
  3870 ;;		_UART1_DefaultErrorHandler
  3871 ;;		_UART1_DefaultFramingErrorHandler
  3872 ;;		_UART1_DefaultOverrunErrorHandler
  3873 ;;		_UART1_RxDataHandler
  3874 ;; This function is called by:
  3875 ;;		_UART1_Initialize
  3876 ;;		_UART1_rx_vect_isr
  3877 ;; This function uses a non-reentrant model
  3878 ;;
  3879                           
  3880                           	psect	text44
  3881  0037D8                     __ptext44:
  3882                           	callstack 0
  3883  0037D8                     _UART1_Receive_ISR:
  3884                           	callstack 119
  3885  0037D8                     
  3886                           ;mcc_generated_files/uart1.c: 266:     uart1RxStatusBuffer[uart1RxHead].status = 0;
  3887  0037D8  0E60               	movlw	low _uart1RxStatusBuffer
  3888  0037DA  2435               	addwf	_uart1RxHead^(0+1280),w,c	;volatile
  3889  0037DC  6ED9               	movwf	fsr2l,c
  3890  0037DE  6ADA               	clrf	fsr2h,c
  3891  0037E0  0E05               	movlw	high _uart1RxStatusBuffer
  3892  0037E2  22DA               	addwfc	fsr2h,f,c
  3893  0037E4  0E00               	movlw	0
  3894  0037E6  6EDF               	movwf	indf2,c
  3895  0037E8                     
  3896                           ;mcc_generated_files/uart1.c: 268:     if(U1ERRIRbits.FERIF){
  3897  0037E8  0102               	movlb	2	; () banked
  3898  0037EA  A7B2               	btfss	178,3,b	;volatile
  3899  0037EC  EFFA  F01B         	goto	i2u133_41
  3900  0037F0  EFFC  F01B         	goto	i2u133_40
  3901  0037F4                     i2u133_41:
  3902  0037F4  EF11  F01C         	goto	i2l2501
  3903  0037F8                     i2u133_40:
  3904  0037F8                     
  3905                           ; BSR set to: 2
  3906                           ;mcc_generated_files/uart1.c: 269:         uart1RxStatusBuffer[uart1RxHead].ferr = 1;
  3907  0037F8  0E60               	movlw	low _uart1RxStatusBuffer
  3908  0037FA  2435               	addwf	_uart1RxHead^(0+1280),w,c	;volatile
  3909  0037FC  6ED9               	movwf	fsr2l,c
  3910  0037FE  6ADA               	clrf	fsr2h,c
  3911  003800  0E05               	movlw	high _uart1RxStatusBuffer
  3912  003802  22DA               	addwfc	fsr2h,f,c
  3913  003804  0105               	movlb	5	; () banked
  3914  003806  82DF               	bsf	indf2,1,c
  3915  003808                     
  3916                           ; BSR set to: 5
  3917                           ;mcc_generated_files/uart1.c: 270:         UART1_FramingErrorHandler();
  3918  003808  D802               	call	i2u134_48
  3919  00380A  EF11  F01C         	goto	i2u134_49
  3920  00380E                     i2u134_48:
  3921  00380E  0005               	push	
  3922  003810  6EFA               	movwf	pclath,c
  3923  003812  5007               	movf	_UART1_FramingErrorHandler^(0+1280),w,c
  3924  003814  6EFD               	movwf	tosl,c
  3925  003816  5008               	movf	(_UART1_FramingErrorHandler+1)^(0+1280),w,c
  3926  003818  6EFE               	movwf	tosh,c
  3927  00381A  5009               	movf	(_UART1_FramingErrorHandler+2)^(0+1280),w,c
  3928  00381C  6EFF               	movwf	tosu,c
  3929  00381E  50FA               	movf	pclath,w,c
  3930  003820  0012               	return		;indir
  3931  003822                     i2u134_49:
  3932  003822                     i2l2501:
  3933                           
  3934                           ;mcc_generated_files/uart1.c: 273:     if(U1ERRIRbits.RXFOIF){
  3935  003822  0102               	movlb	2	; () banked
  3936  003824  A3B2               	btfss	178,1,b	;volatile
  3937  003826  EF17  F01C         	goto	i2u135_41
  3938  00382A  EF19  F01C         	goto	i2u135_40
  3939  00382E                     i2u135_41:
  3940  00382E  EF2E  F01C         	goto	i2l2507
  3941  003832                     i2u135_40:
  3942  003832                     
  3943                           ; BSR set to: 2
  3944                           ;mcc_generated_files/uart1.c: 274:         uart1RxStatusBuffer[uart1RxHead].oerr = 1;
  3945  003832  0E60               	movlw	low _uart1RxStatusBuffer
  3946  003834  2435               	addwf	_uart1RxHead^(0+1280),w,c	;volatile
  3947  003836  6ED9               	movwf	fsr2l,c
  3948  003838  6ADA               	clrf	fsr2h,c
  3949  00383A  0E05               	movlw	high _uart1RxStatusBuffer
  3950  00383C  22DA               	addwfc	fsr2h,f,c
  3951  00383E  0105               	movlb	5	; () banked
  3952  003840  84DF               	bsf	indf2,2,c
  3953  003842                     
  3954                           ; BSR set to: 5
  3955                           ;mcc_generated_files/uart1.c: 275:         UART1_OverrunErrorHandler();
  3956  003842  D802               	call	i2u136_48
  3957  003844  EF2E  F01C         	goto	i2u136_49
  3958  003848                     i2u136_48:
  3959  003848  0005               	push	
  3960  00384A  6EFA               	movwf	pclath,c
  3961  00384C  5004               	movf	_UART1_OverrunErrorHandler^(0+1280),w,c
  3962  00384E  6EFD               	movwf	tosl,c
  3963  003850  5005               	movf	(_UART1_OverrunErrorHandler+1)^(0+1280),w,c
  3964  003852  6EFE               	movwf	tosh,c
  3965  003854  5006               	movf	(_UART1_OverrunErrorHandler+2)^(0+1280),w,c
  3966  003856  6EFF               	movwf	tosu,c
  3967  003858  50FA               	movf	pclath,w,c
  3968  00385A  0012               	return		;indir
  3969  00385C                     i2u136_49:
  3970  00385C                     i2l2507:
  3971                           
  3972                           ;mcc_generated_files/uart1.c: 278:     if(uart1RxStatusBuffer[uart1RxHead].status){
  3973  00385C  0E60               	movlw	low _uart1RxStatusBuffer
  3974  00385E  2435               	addwf	_uart1RxHead^(0+1280),w,c	;volatile
  3975  003860  6ED9               	movwf	fsr2l,c
  3976  003862  6ADA               	clrf	fsr2h,c
  3977  003864  0E05               	movlw	high _uart1RxStatusBuffer
  3978  003866  22DA               	addwfc	fsr2h,f,c
  3979  003868  50DF               	movf	indf2,w,c
  3980  00386A  B4D8               	btfsc	status,2,c
  3981  00386C  EF3A  F01C         	goto	i2u137_41
  3982  003870  EF3C  F01C         	goto	i2u137_40
  3983  003874                     i2u137_41:
  3984  003874  EF4B  F01C         	goto	i2l2511
  3985  003878                     i2u137_40:
  3986  003878                     
  3987                           ;mcc_generated_files/uart1.c: 279:         UART1_ErrorHandler();
  3988  003878  D802               	call	i2u138_48
  3989  00387A  EF49  F01C         	goto	i2u138_49
  3990  00387E                     i2u138_48:
  3991  00387E  0005               	push	
  3992  003880  6EFA               	movwf	pclath,c
  3993  003882  5001               	movf	_UART1_ErrorHandler^(0+1280),w,c
  3994  003884  6EFD               	movwf	tosl,c
  3995  003886  5002               	movf	(_UART1_ErrorHandler+1)^(0+1280),w,c
  3996  003888  6EFE               	movwf	tosh,c
  3997  00388A  5003               	movf	(_UART1_ErrorHandler+2)^(0+1280),w,c
  3998  00388C  6EFF               	movwf	tosu,c
  3999  00388E  50FA               	movf	pclath,w,c
  4000  003890  0012               	return		;indir
  4001  003892                     i2u138_49:
  4002                           
  4003                           ;mcc_generated_files/uart1.c: 280:     } else {
  4004  003892  EF4D  F01C         	goto	i2l752
  4005  003896                     i2l2511:
  4006                           
  4007                           ;mcc_generated_files/uart1.c: 281:         UART1_RxDataHandler();
  4008  003896  EC97  F01F         	call	_UART1_RxDataHandler	;wreg free
  4009  00389A                     i2l752:
  4010  00389A  0012               	return		;funcret
  4011  00389C                     __end_of_UART1_Receive_ISR:
  4012                           	callstack 0
  4013                           
  4014 ;; *************** function _UART1_DefaultOverrunErrorHandler *****************
  4015 ;; Defined at:
  4016 ;;		line 299 in file "mcc_generated_files/uart1.c"
  4017 ;; Parameters:    Size  Location     Type
  4018 ;;		None
  4019 ;; Auto vars:     Size  Location     Type
  4020 ;;		None
  4021 ;; Return value:  Size  Location     Type
  4022 ;;                  1    wreg      void 
  4023 ;; Registers used:
  4024 ;;		None
  4025 ;; Tracked objects:
  4026 ;;		On entry : 0/0
  4027 ;;		On exit  : 0/0
  4028 ;;		Unchanged: 0/0
  4029 ;; Data sizes:     COMRAM   BANK5   BANK6   BANK7   BANK8   BANK9  BANK10  BANK11  BANK12  BANK13  BANK14  BANK15  BANK1
      +6  BANK17  BANK18  BANK19  BANK20  BANK21  BANK22  BANK23  BANK24  BANK25  BANK26  BANK27  BANK28  BANK29  BANK30  BANK3
      +1  BANK32  BANK33  BANK34  BANK35  BANK36  BANK37  BANK38  BANK39  BANK40  BANK41  BANK42  BANK43  BANK44  BANK45  BANK4
      +6  BANK47  BANK48  BANK49  BANK50  BANK51  BANK52  BANK53  BANK54
  4030 ;;      Params:         0       0       0       0       0       0       0       0       0       0       0       0       
      +0       0       0       0       0       0       0       0       0       0       0       0       0       0       0       
      +0       0       0       0       0       0       0       0       0       0       0       0       0       0       0       
      +0       0       0       0       0       0       0       0       0
  4031 ;;      Locals:         0       0       0       0       0       0       0       0       0       0       0       0       
      +0       0       0       0       0       0       0       0       0       0       0       0       0       0       0       
      +0       0       0       0       0       0       0       0       0       0       0       0       0       0       0       
      +0       0       0       0       0       0       0       0       0
  4032 ;;      Temps:          0       0       0       0       0       0       0       0       0       0       0       0       
      +0       0       0       0       0       0       0       0       0       0       0       0       0       0       0       
      +0       0       0       0       0       0       0       0       0       0       0       0       0       0       0       
      +0       0       0       0       0       0       0       0       0
  4033 ;;      Totals:         0       0       0       0       0       0       0       0       0       0       0       0       
      +0       0       0       0       0       0       0       0       0       0       0       0       0       0       0       
      +0       0       0       0       0       0       0       0       0       0       0       0       0       0       0       
      +0       0       0       0       0       0       0       0       0
  4034 ;;Total ram usage:        0 bytes
  4035 ;; Hardware stack levels used: 1
  4036 ;; This function calls:
  4037 ;;		Nothing
  4038 ;; This function is called by:
  4039 ;;		_UART1_Initialize
  4040 ;;		_UART1_Receive_ISR
  4041 ;; This function uses a non-reentrant model
  4042 ;;
  4043                           
  4044                           	psect	text45
  4045  0040CA                     __ptext45:
  4046                           	callstack 0
  4047  0040CA                     _UART1_DefaultOverrunErrorHandler:
  4048                           	callstack 120
  4049  0040CA  0012               	return		;funcret
  4050  0040CC                     __end_of_UART1_DefaultOverrunErrorHandler:
  4051                           	callstack 0
  4052                           
  4053 ;; *************** function _UART1_DefaultFramingErrorHandler *****************
  4054 ;; Defined at:
  4055 ;;		line 297 in file "mcc_generated_files/uart1.c"
  4056 ;; Parameters:    Size  Location     Type
  4057 ;;		None
  4058 ;; Auto vars:     Size  Location     Type
  4059 ;;		None
  4060 ;; Return value:  Size  Location     Type
  4061 ;;                  1    wreg      void 
  4062 ;; Registers used:
  4063 ;;		None
  4064 ;; Tracked objects:
  4065 ;;		On entry : 0/0
  4066 ;;		On exit  : 0/0
  4067 ;;		Unchanged: 0/0
  4068 ;; Data sizes:     COMRAM   BANK5   BANK6   BANK7   BANK8   BANK9  BANK10  BANK11  BANK12  BANK13  BANK14  BANK15  BANK1
      +6  BANK17  BANK18  BANK19  BANK20  BANK21  BANK22  BANK23  BANK24  BANK25  BANK26  BANK27  BANK28  BANK29  BANK30  BANK3
      +1  BANK32  BANK33  BANK34  BANK35  BANK36  BANK37  BANK38  BANK39  BANK40  BANK41  BANK42  BANK43  BANK44  BANK45  BANK4
      +6  BANK47  BANK48  BANK49  BANK50  BANK51  BANK52  BANK53  BANK54
  4069 ;;      Params:         0       0       0       0       0       0       0       0       0       0       0       0       
      +0       0       0       0       0       0       0       0       0       0       0       0       0       0       0       
      +0       0       0       0       0       0       0       0       0       0       0       0       0       0       0       
      +0       0       0       0       0       0       0       0       0
  4070 ;;      Locals:         0       0       0       0       0       0       0       0       0       0       0       0       
      +0       0       0       0       0       0       0       0       0       0       0       0       0       0       0       
      +0       0       0       0       0       0       0       0       0       0       0       0       0       0       0       
      +0       0       0       0       0       0       0       0       0
  4071 ;;      Temps:          0       0       0       0       0       0       0       0       0       0       0       0       
      +0       0       0       0       0       0       0       0       0       0       0       0       0       0       0       
      +0       0       0       0       0       0       0       0       0       0       0       0       0       0       0       
      +0       0       0       0       0       0       0       0       0
  4072 ;;      Totals:         0       0       0       0       0       0       0       0       0       0       0       0       
      +0       0       0       0       0       0       0       0       0       0       0       0       0       0       0       
      +0       0       0       0       0       0       0       0       0       0       0       0       0       0       0       
      +0       0       0       0       0       0       0       0       0
  4073 ;;Total ram usage:        0 bytes
  4074 ;; Hardware stack levels used: 1
  4075 ;; This function calls:
  4076 ;;		Nothing
  4077 ;; This function is called by:
  4078 ;;		_UART1_Initialize
  4079 ;;		_UART1_Receive_ISR
  4080 ;; This function uses a non-reentrant model
  4081 ;;
  4082                           
  4083                           	psect	text46
  4084  0040CC                     __ptext46:
  4085                           	callstack 0
  4086  0040CC                     _UART1_DefaultFramingErrorHandler:
  4087                           	callstack 120
  4088  0040CC  0012               	return		;funcret
  4089  0040CE                     __end_of_UART1_DefaultFramingErrorHandler:
  4090                           	callstack 0
  4091                           
  4092 ;; *************** function _UART1_DefaultErrorHandler *****************
  4093 ;; Defined at:
  4094 ;;		line 301 in file "mcc_generated_files/uart1.c"
  4095 ;; Parameters:    Size  Location     Type
  4096 ;;		None
  4097 ;; Auto vars:     Size  Location     Type
  4098 ;;		None
  4099 ;; Return value:  Size  Location     Type
  4100 ;;                  1    wreg      void 
  4101 ;; Registers used:
  4102 ;;		wreg, fsr2l, fsr2h, status,2, status,0, cstack
  4103 ;; Tracked objects:
  4104 ;;		On entry : 0/0
  4105 ;;		On exit  : 0/0
  4106 ;;		Unchanged: 0/0
  4107 ;; Data sizes:     COMRAM   BANK5   BANK6   BANK7   BANK8   BANK9  BANK10  BANK11  BANK12  BANK13  BANK14  BANK15  BANK1
      +6  BANK17  BANK18  BANK19  BANK20  BANK21  BANK22  BANK23  BANK24  BANK25  BANK26  BANK27  BANK28  BANK29  BANK30  BANK3
      +1  BANK32  BANK33  BANK34  BANK35  BANK36  BANK37  BANK38  BANK39  BANK40  BANK41  BANK42  BANK43  BANK44  BANK45  BANK4
      +6  BANK47  BANK48  BANK49  BANK50  BANK51  BANK52  BANK53  BANK54
  4108 ;;      Params:         0       0       0       0       0       0       0       0       0       0       0       0       
      +0       0       0       0       0       0       0       0       0       0       0       0       0       0       0       
      +0       0       0       0       0       0       0       0       0       0       0       0       0       0       0       
      +0       0       0       0       0       0       0       0       0
  4109 ;;      Locals:         0       0       0       0       0       0       0       0       0       0       0       0       
      +0       0       0       0       0       0       0       0       0       0       0       0       0       0       0       
      +0       0       0       0       0       0       0       0       0       0       0       0       0       0       0       
      +0       0       0       0       0       0       0       0       0
  4110 ;;      Temps:          0       0       0       0       0       0       0       0       0       0       0       0       
      +0       0       0       0       0       0       0       0       0       0       0       0       0       0       0       
      +0       0       0       0       0       0       0       0       0       0       0       0       0       0       0       
      +0       0       0       0       0       0       0       0       0
  4111 ;;      Totals:         0       0       0       0       0       0       0       0       0       0       0       0       
      +0       0       0       0       0       0       0       0       0       0       0       0       0       0       0       
      +0       0       0       0       0       0       0       0       0       0       0       0       0       0       0       
      +0       0       0       0       0       0       0       0       0
  4112 ;;Total ram usage:        0 bytes
  4113 ;; Hardware stack levels used: 1
  4114 ;; Hardware stack levels required when called: 1
  4115 ;; This function calls:
  4116 ;;		_UART1_RxDataHandler
  4117 ;; This function is called by:
  4118 ;;		_UART1_Initialize
  4119 ;;		_UART1_Receive_ISR
  4120 ;; This function uses a non-reentrant model
  4121 ;;
  4122                           
  4123                           	psect	text47
  4124  0040B6                     __ptext47:
  4125                           	callstack 0
  4126  0040B6                     _UART1_DefaultErrorHandler:
  4127                           	callstack 119
  4128  0040B6                     
  4129                           ;mcc_generated_files/uart1.c: 302:     UART1_RxDataHandler();
  4130  0040B6  EC97  F01F         	call	_UART1_RxDataHandler	;wreg free
  4131  0040BA  0012               	return		;funcret
  4132  0040BC                     __end_of_UART1_DefaultErrorHandler:
  4133                           	callstack 0
  4134                           
  4135 ;; *************** function _UART1_RxDataHandler *****************
  4136 ;; Defined at:
  4137 ;;		line 287 in file "mcc_generated_files/uart1.c"
  4138 ;; Parameters:    Size  Location     Type
  4139 ;;		None
  4140 ;; Auto vars:     Size  Location     Type
  4141 ;;		None
  4142 ;; Return value:  Size  Location     Type
  4143 ;;                  1    wreg      void 
  4144 ;; Registers used:
  4145 ;;		wreg, fsr2l, fsr2h, status,2, status,0
  4146 ;; Tracked objects:
  4147 ;;		On entry : 0/0
  4148 ;;		On exit  : 0/0
  4149 ;;		Unchanged: 0/0
  4150 ;; Data sizes:     COMRAM   BANK5   BANK6   BANK7   BANK8   BANK9  BANK10  BANK11  BANK12  BANK13  BANK14  BANK15  BANK1
      +6  BANK17  BANK18  BANK19  BANK20  BANK21  BANK22  BANK23  BANK24  BANK25  BANK26  BANK27  BANK28  BANK29  BANK30  BANK3
      +1  BANK32  BANK33  BANK34  BANK35  BANK36  BANK37  BANK38  BANK39  BANK40  BANK41  BANK42  BANK43  BANK44  BANK45  BANK4
      +6  BANK47  BANK48  BANK49  BANK50  BANK51  BANK52  BANK53  BANK54
  4151 ;;      Params:         0       0       0       0       0       0       0       0       0       0       0       0       
      +0       0       0       0       0       0       0       0       0       0       0       0       0       0       0       
      +0       0       0       0       0       0       0       0       0       0       0       0       0       0       0       
      +0       0       0       0       0       0       0       0       0
  4152 ;;      Locals:         0       0       0       0       0       0       0       0       0       0       0       0       
      +0       0       0       0       0       0       0       0       0       0       0       0       0       0       0       
      +0       0       0       0       0       0       0       0       0       0       0       0       0       0       0       
      +0       0       0       0       0       0       0       0       0
  4153 ;;      Temps:          0       0       0       0       0       0       0       0       0       0       0       0       
      +0       0       0       0       0       0       0       0       0       0       0       0       0       0       0       
      +0       0       0       0       0       0       0       0       0       0       0       0       0       0       0       
      +0       0       0       0       0       0       0       0       0
  4154 ;;      Totals:         0       0       0       0       0       0       0       0       0       0       0       0       
      +0       0       0       0       0       0       0       0       0       0       0       0       0       0       0       
      +0       0       0       0       0       0       0       0       0       0       0       0       0       0       0       
      +0       0       0       0       0       0       0       0       0
  4155 ;;Total ram usage:        0 bytes
  4156 ;; Hardware stack levels used: 1
  4157 ;; This function calls:
  4158 ;;		Nothing
  4159 ;; This function is called by:
  4160 ;;		_UART1_Receive_ISR
  4161 ;;		_UART1_DefaultErrorHandler
  4162 ;; This function uses a non-reentrant model
  4163 ;;
  4164                           
  4165                           	psect	text48
  4166  003F2E                     __ptext48:
  4167                           	callstack 0
  4168  003F2E                     _UART1_RxDataHandler:
  4169                           	callstack 120
  4170  003F2E                     
  4171                           ;mcc_generated_files/uart1.c: 289:     uart1RxBuffer[uart1RxHead++] = U1RXB;
  4172  003F2E  0E00               	movlw	low _uart1RxBuffer
  4173  003F30  2435               	addwf	_uart1RxHead^(0+1280),w,c	;volatile
  4174  003F32  6ED9               	movwf	fsr2l,c
  4175  003F34  6ADA               	clrf	fsr2h,c
  4176  003F36  0E06               	movlw	high _uart1RxBuffer
  4177  003F38  22DA               	addwfc	fsr2h,f,c
  4178  003F3A  C2A1 F4DF          	movff	673,indf2	;volatile
  4179  003F3E  2A35               	incf	_uart1RxHead^(0+1280),f,c	;volatile
  4180  003F40                     
  4181                           ;mcc_generated_files/uart1.c: 290:     if(sizeof(uart1RxBuffer) <= uart1RxHead)
  4182  003F40  0E3F               	movlw	63
  4183  003F42  6435               	cpfsgt	_uart1RxHead^(0+1280),c	;volatile
  4184  003F44  EFA6  F01F         	goto	i2u100_41
  4185  003F48  EFA8  F01F         	goto	i2u100_40
  4186  003F4C                     i2u100_41:
  4187  003F4C  EFAA  F01F         	goto	i2l2257
  4188  003F50                     i2u100_40:
  4189  003F50                     
  4190                           ;mcc_generated_files/uart1.c: 291:     {;mcc_generated_files/uart1.c: 292:         uart1
      +                          RxHead = 0;
  4191  003F50  0E00               	movlw	0
  4192  003F52  6E35               	movwf	_uart1RxHead^(0+1280),c	;volatile
  4193  003F54                     i2l2257:
  4194                           
  4195                           ;mcc_generated_files/uart1.c: 294:     uart1RxCount++;
  4196  003F54  2A33               	incf	_uart1RxCount^(0+1280),f,c	;volatile
  4197  003F56  0012               	return		;funcret
  4198  003F58                     __end_of_UART1_RxDataHandler:
  4199                           	callstack 0
  4200                           
  4201                           ;
  4202                           ; Interrupt Vector Table @ 0x8
  4203                           ;
  4204                           
  4205                           	psect	ivt0x8
  4206  000008                     __pivt0x8:
  4207                           	callstack 0
  4208  000008                     ivt0x8_base:
  4209                           	callstack 0
  4210                           
  4211                           ; Vector 0 : SWINT
  4212  000008  1031               	dw	_Default_ISR shr (0+2)
  4213                           
  4214                           ; Vector 1 : HLVD
  4215  00000A  1031               	dw	_Default_ISR shr (0+2)
  4216                           
  4217                           ; Vector 2 : OSF
  4218  00000C  1031               	dw	_Default_ISR shr (0+2)
  4219                           
  4220                           ; Vector 3 : CSW
  4221  00000E  1031               	dw	_Default_ISR shr (0+2)
  4222                           
  4223                           ; Vector 4 : TU16A
  4224  000010  1031               	dw	_Default_ISR shr (0+2)
  4225                           
  4226                           ; Vector 5 : CLC1
  4227  000012  1031               	dw	_Default_ISR shr (0+2)
  4228                           
  4229                           ; Vector 6 : CAN
  4230  000014  1031               	dw	_Default_ISR shr (0+2)
  4231                           
  4232                           ; Vector 7 : IOC
  4233  000016  1031               	dw	_Default_ISR shr (0+2)
  4234                           
  4235                           ; Vector 8 : INT0
  4236  000018  1031               	dw	_Default_ISR shr (0+2)
  4237                           
  4238                           ; Vector 9 : ZCD
  4239  00001A  1031               	dw	_Default_ISR shr (0+2)
  4240                           
  4241                           ; Vector 10 : AD
  4242  00001C  1031               	dw	_Default_ISR shr (0+2)
  4243                           
  4244                           ; Vector 11 : ACT
  4245  00001E  1031               	dw	_Default_ISR shr (0+2)
  4246                           
  4247                           ; Vector 12 : CM1
  4248  000020  1031               	dw	_Default_ISR shr (0+2)
  4249                           
  4250                           ; Vector 13 : SMT1
  4251  000022  1031               	dw	_Default_ISR shr (0+2)
  4252                           
  4253                           ; Vector 14 : SMT1PRA
  4254  000024  1031               	dw	_Default_ISR shr (0+2)
  4255                           
  4256                           ; Vector 15 : SMT1PWA
  4257  000026  1031               	dw	_Default_ISR shr (0+2)
  4258                           
  4259                           ; Vector 16 : ADCH1
  4260  000028  1031               	dw	_Default_ISR shr (0+2)
  4261                           
  4262                           ; Vector 17 : ADCH2
  4263  00002A  1031               	dw	_Default_ISR shr (0+2)
  4264                           
  4265                           ; Vector 18 : ADCH3
  4266  00002C  1031               	dw	_Default_ISR shr (0+2)
  4267                           
  4268                           ; Vector 19 : ADCH4
  4269  00002E  1031               	dw	_Default_ISR shr (0+2)
  4270                           
  4271                           ; Vector 20 : DMA1SCNT
  4272  000030  1031               	dw	_Default_ISR shr (0+2)
  4273                           
  4274                           ; Vector 21 : DMA1DCNT
  4275  000032  1031               	dw	_Default_ISR shr (0+2)
  4276                           
  4277                           ; Vector 22 : DMA1OR
  4278  000034  1031               	dw	_Default_ISR shr (0+2)
  4279                           
  4280                           ; Vector 23 : DMA1A
  4281  000036  1031               	dw	_Default_ISR shr (0+2)
  4282                           
  4283                           ; Vector 24 : SPI1RX
  4284  000038  1031               	dw	_Default_ISR shr (0+2)
  4285                           
  4286                           ; Vector 25 : SPI1TX
  4287  00003A  1031               	dw	_Default_ISR shr (0+2)
  4288                           
  4289                           ; Vector 26 : SPI1
  4290  00003C  1031               	dw	_Default_ISR shr (0+2)
  4291                           
  4292                           ; Vector 27 : TMR2
  4293  00003E  1031               	dw	_Default_ISR shr (0+2)
  4294                           
  4295                           ; Vector 28 : TMR1
  4296  000040  1031               	dw	_Default_ISR shr (0+2)
  4297                           
  4298                           ; Vector 29 : TMR1G
  4299  000042  1031               	dw	_Default_ISR shr (0+2)
  4300                           
  4301                           ; Vector 30 : CCP1
  4302  000044  1031               	dw	_Default_ISR shr (0+2)
  4303                           
  4304                           ; Vector 31 : TMR0
  4305  000046  0F13               	dw	_TMR0_ISR shr (0+2)
  4306                           
  4307                           ; Vector 32 : U1RX
  4308  000048  0F5C               	dw	_UART1_rx_vect_isr shr (0+2)
  4309                           
  4310                           ; Vector 33 : U1TX
  4311  00004A  0F4A               	dw	_UART1_tx_vect_isr shr (0+2)
  4312                           
  4313                           ; Vector 34 : U1E
  4314  00004C  1031               	dw	_Default_ISR shr (0+2)
  4315                           
  4316                           ; Vector 35 : U1
  4317  00004E  1031               	dw	_Default_ISR shr (0+2)
  4318                           
  4319                           ; Vector 36 : CANRX
  4320  000050  1031               	dw	_Default_ISR shr (0+2)
  4321                           
  4322                           ; Vector 37 : CANTX
  4323  000052  1031               	dw	_Default_ISR shr (0+2)
  4324                           
  4325                           ; Vector 38 : PWM1PR
  4326  000054  1031               	dw	_Default_ISR shr (0+2)
  4327                           
  4328                           ; Vector 39 : PWM1
  4329  000056  1031               	dw	_Default_ISR shr (0+2)
  4330                           
  4331                           ; Vector 40 : SPI2RX
  4332  000058  1031               	dw	_Default_ISR shr (0+2)
  4333                           
  4334                           ; Vector 41 : SPI2TX
  4335  00005A  1031               	dw	_Default_ISR shr (0+2)
  4336                           
  4337                           ; Vector 42 : SPI2
  4338  00005C  1031               	dw	_Default_ISR shr (0+2)
  4339                           
  4340                           ; Vector 43 : TU16B
  4341  00005E  1031               	dw	_Default_ISR shr (0+2)
  4342                           
  4343                           ; Vector 44 : TMR3
  4344  000060  1031               	dw	_Default_ISR shr (0+2)
  4345                           
  4346                           ; Vector 45 : TMR3G
  4347  000062  1031               	dw	_Default_ISR shr (0+2)
  4348                           
  4349                           ; Vector 46 : PWM2PR
  4350  000064  1031               	dw	_Default_ISR shr (0+2)
  4351                           
  4352                           ; Vector 47 : PWM2
  4353  000066  1031               	dw	_Default_ISR shr (0+2)
  4354                           
  4355                           ; Vector 48 : INT1
  4356  000068  1031               	dw	_Default_ISR shr (0+2)
  4357                           
  4358                           ; Vector 49 : CLC2
  4359  00006A  1031               	dw	_Default_ISR shr (0+2)
  4360                           
  4361                           ; Vector 50 : CWG1
  4362  00006C  1031               	dw	_Default_ISR shr (0+2)
  4363                           
  4364                           ; Vector 51 : NCO1
  4365  00006E  1031               	dw	_Default_ISR shr (0+2)
  4366                           
  4367                           ; Vector 52 : DMA2SCNT
  4368  000070  1031               	dw	_Default_ISR shr (0+2)
  4369                           
  4370                           ; Vector 53 : DMA2DCNT
  4371  000072  1031               	dw	_Default_ISR shr (0+2)
  4372                           
  4373                           ; Vector 54 : DMA2OR
  4374  000074  1031               	dw	_Default_ISR shr (0+2)
  4375                           
  4376                           ; Vector 55 : DMA2A
  4377  000076  1031               	dw	_Default_ISR shr (0+2)
  4378                           
  4379                           ; Vector 56 : I2C1RX
  4380  000078  1031               	dw	_Default_ISR shr (0+2)
  4381                           
  4382                           ; Vector 57 : I2C1TX
  4383  00007A  1031               	dw	_Default_ISR shr (0+2)
  4384                           
  4385                           ; Vector 58 : I2C1
  4386  00007C  1031               	dw	_Default_ISR shr (0+2)
  4387                           
  4388                           ; Vector 59 : I2C1E
  4389  00007E  1031               	dw	_Default_ISR shr (0+2)
  4390                           
  4391                           ; Vector 60 : Undefined
  4392  000080  0042               	dw	ivt0x8_undefint shr (0+2)
  4393                           
  4394                           ; Vector 61 : CLC3
  4395  000082  1031               	dw	_Default_ISR shr (0+2)
  4396                           
  4397                           ; Vector 62 : PWM3PR
  4398  000084  1031               	dw	_Default_ISR shr (0+2)
  4399                           
  4400                           ; Vector 63 : PWM3
  4401  000086  1031               	dw	_Default_ISR shr (0+2)
  4402                           
  4403                           ; Vector 64 : U2RX
  4404  000088  0F38               	dw	_UART2_rx_vect_isr shr (0+2)
  4405                           
  4406                           ; Vector 65 : U2TX
  4407  00008A  0F26               	dw	_UART2_tx_vect_isr shr (0+2)
  4408                           
  4409                           ; Vector 66 : U2E
  4410  00008C  1031               	dw	_Default_ISR shr (0+2)
  4411                           
  4412                           ; Vector 67 : U2
  4413  00008E  1031               	dw	_Default_ISR shr (0+2)
  4414                           
  4415                           ; Vector 68 : TMR5
  4416  000090  1031               	dw	_Default_ISR shr (0+2)
  4417                           
  4418                           ; Vector 69 : TMR5G
  4419  000092  1031               	dw	_Default_ISR shr (0+2)
  4420                           
  4421                           ; Vector 70 : CCP2
  4422  000094  1031               	dw	_Default_ISR shr (0+2)
  4423                           
  4424                           ; Vector 71 : SCAN
  4425  000096  1031               	dw	_Default_ISR shr (0+2)
  4426                           
  4427                           ; Vector 72 : U3RX
  4428  000098  1031               	dw	_Default_ISR shr (0+2)
  4429                           
  4430                           ; Vector 73 : U3TX
  4431  00009A  1031               	dw	_Default_ISR shr (0+2)
  4432                           
  4433                           ; Vector 74 : U3E
  4434  00009C  1031               	dw	_Default_ISR shr (0+2)
  4435                           
  4436                           ; Vector 75 : U3
  4437  00009E  1031               	dw	_Default_ISR shr (0+2)
  4438                           
  4439                           ; Vector 76 : Undefined
  4440  0000A0  0042               	dw	ivt0x8_undefint shr (0+2)
  4441                           
  4442                           ; Vector 77 : CLC4
  4443  0000A2  1031               	dw	_Default_ISR shr (0+2)
  4444                           
  4445                           ; Vector 78 : PWM4PR
  4446  0000A4  1031               	dw	_Default_ISR shr (0+2)
  4447                           
  4448                           ; Vector 79 : PWM4
  4449  0000A6  1031               	dw	_Default_ISR shr (0+2)
  4450                           
  4451                           ; Vector 80 : INT2
  4452  0000A8  1031               	dw	_Default_ISR shr (0+2)
  4453                           
  4454                           ; Vector 81 : CLC5
  4455  0000AA  1031               	dw	_Default_ISR shr (0+2)
  4456                           
  4457                           ; Vector 82 : CWG2
  4458  0000AC  1031               	dw	_Default_ISR shr (0+2)
  4459                           
  4460                           ; Vector 83 : NCO2
  4461  0000AE  1031               	dw	_Default_ISR shr (0+2)
  4462                           
  4463                           ; Vector 84 : DMA3SCNT
  4464  0000B0  1031               	dw	_Default_ISR shr (0+2)
  4465                           
  4466                           ; Vector 85 : DMA3DCNT
  4467  0000B2  1031               	dw	_Default_ISR shr (0+2)
  4468                           
  4469                           ; Vector 86 : DMA3OR
  4470  0000B4  1031               	dw	_Default_ISR shr (0+2)
  4471                           
  4472                           ; Vector 87 : DMA3A
  4473  0000B6  1031               	dw	_Default_ISR shr (0+2)
  4474                           
  4475                           ; Vector 88 : CCP3
  4476  0000B8  1031               	dw	_Default_ISR shr (0+2)
  4477                           
  4478                           ; Vector 89 : CLC6
  4479  0000BA  1031               	dw	_Default_ISR shr (0+2)
  4480                           
  4481                           ; Vector 90 : CWG3
  4482  0000BC  1031               	dw	_Default_ISR shr (0+2)
  4483                           
  4484                           ; Vector 91 : TMR4
  4485  0000BE  1031               	dw	_Default_ISR shr (0+2)
  4486                           
  4487                           ; Vector 92 : DMA4SCNT
  4488  0000C0  1031               	dw	_Default_ISR shr (0+2)
  4489                           
  4490                           ; Vector 93 : DMA4DCNT
  4491  0000C2  1031               	dw	_Default_ISR shr (0+2)
  4492                           
  4493                           ; Vector 94 : DMA4OR
  4494  0000C4  1031               	dw	_Default_ISR shr (0+2)
  4495                           
  4496                           ; Vector 95 : DMA4A
  4497  0000C6  1031               	dw	_Default_ISR shr (0+2)
  4498                           
  4499                           ; Vector 96 : U4RX
  4500  0000C8  1031               	dw	_Default_ISR shr (0+2)
  4501                           
  4502                           ; Vector 97 : U4TX
  4503  0000CA  1031               	dw	_Default_ISR shr (0+2)
  4504                           
  4505                           ; Vector 98 : U4E
  4506  0000CC  1031               	dw	_Default_ISR shr (0+2)
  4507                           
  4508                           ; Vector 99 : U4
  4509  0000CE  1031               	dw	_Default_ISR shr (0+2)
  4510                           
  4511                           ; Vector 100 : DMA5SCNT
  4512  0000D0  1031               	dw	_Default_ISR shr (0+2)
  4513                           
  4514                           ; Vector 101 : DMA5DCNT
  4515  0000D2  1031               	dw	_Default_ISR shr (0+2)
  4516                           
  4517                           ; Vector 102 : DMA5OR
  4518  0000D4  1031               	dw	_Default_ISR shr (0+2)
  4519                           
  4520                           ; Vector 103 : DMA5A
  4521  0000D6  1031               	dw	_Default_ISR shr (0+2)
  4522                           
  4523                           ; Vector 104 : U5RX
  4524  0000D8  1031               	dw	_Default_ISR shr (0+2)
  4525                           
  4526                           ; Vector 105 : U5TX
  4527  0000DA  1031               	dw	_Default_ISR shr (0+2)
  4528                           
  4529                           ; Vector 106 : U5E
  4530  0000DC  1031               	dw	_Default_ISR shr (0+2)
  4531                           
  4532                           ; Vector 107 : U5
  4533  0000DE  1031               	dw	_Default_ISR shr (0+2)
  4534                           
  4535                           ; Vector 108 : DMA6SCNT
  4536  0000E0  1031               	dw	_Default_ISR shr (0+2)
  4537                           
  4538                           ; Vector 109 : DMA6DCNT
  4539  0000E2  1031               	dw	_Default_ISR shr (0+2)
  4540                           
  4541                           ; Vector 110 : DMA6OR
  4542  0000E4  1031               	dw	_Default_ISR shr (0+2)
  4543                           
  4544                           ; Vector 111 : DMA6A
  4545  0000E6  1031               	dw	_Default_ISR shr (0+2)
  4546                           
  4547                           ; Vector 112 : Undefined
  4548  0000E8  0042               	dw	ivt0x8_undefint shr (0+2)
  4549                           
  4550                           ; Vector 113 : CLC7
  4551  0000EA  1031               	dw	_Default_ISR shr (0+2)
  4552                           
  4553                           ; Vector 114 : CM2
  4554  0000EC  1031               	dw	_Default_ISR shr (0+2)
  4555                           
  4556                           ; Vector 115 : NCO3
  4557  0000EE  1031               	dw	_Default_ISR shr (0+2)
  4558                           
  4559                           ; Vector 116 : DMA7SCNT
  4560  0000F0  1031               	dw	_Default_ISR shr (0+2)
  4561                           
  4562                           ; Vector 117 : DMA7DCNT
  4563  0000F2  1031               	dw	_Default_ISR shr (0+2)
  4564                           
  4565                           ; Vector 118 : DMA7OR
  4566  0000F4  1031               	dw	_Default_ISR shr (0+2)
  4567                           
  4568                           ; Vector 119 : DMA7A
  4569  0000F6  1031               	dw	_Default_ISR shr (0+2)
  4570                           
  4571                           ; Vector 120 : NVM
  4572  0000F8  1031               	dw	_Default_ISR shr (0+2)
  4573                           
  4574                           ; Vector 121 : CLC8
  4575  0000FA  1031               	dw	_Default_ISR shr (0+2)
  4576                           
  4577                           ; Vector 122 : CRC
  4578  0000FC  1031               	dw	_Default_ISR shr (0+2)
  4579                           
  4580                           ; Vector 123 : TMR6
  4581  0000FE  1031               	dw	_Default_ISR shr (0+2)
  4582                           
  4583                           ; Vector 124 : DMA8SCNT
  4584  000100  1031               	dw	_Default_ISR shr (0+2)
  4585                           
  4586                           ; Vector 125 : DMA8DCNT
  4587  000102  1031               	dw	_Default_ISR shr (0+2)
  4588                           
  4589                           ; Vector 126 : DMA8OR
  4590  000104  1031               	dw	_Default_ISR shr (0+2)
  4591                           
  4592                           ; Vector 127 : DMA8A
  4593  000106  1031               	dw	_Default_ISR shr (0+2)
  4594  000108                     ivt0x8_undefint:
  4595                           	callstack 0
  4596  000108  00FF               	reset	
  4597                           
  4598                           	psect	text49
  4599  000000                     __ptext49:
  4600                           	callstack 0
  4601  000000                     
  4602                           	psect	rparam
  4603  0000                     
  4604                           	psect	idloc
  4605                           
  4606                           ;Config register IDLOC0 @ 0x200000
  4607                           ;	unspecified, using default values
  4608  200000                     	org	2097152
  4609  200000  0FFF               	dw	4095
  4610                           
  4611                           ;Config register IDLOC1 @ 0x200002
  4612                           ;	unspecified, using default values
  4613  200002                     	org	2097154
  4614  200002  0FFF               	dw	4095
  4615                           
  4616                           ;Config register IDLOC2 @ 0x200004
  4617                           ;	unspecified, using default values
  4618  200004                     	org	2097156
  4619  200004  0FFF               	dw	4095
  4620                           
  4621                           ;Config register IDLOC3 @ 0x200006
  4622                           ;	unspecified, using default values
  4623  200006                     	org	2097158
  4624  200006  0FFF               	dw	4095
  4625                           
  4626                           ;Config register IDLOC4 @ 0x200008
  4627                           ;	unspecified, using default values
  4628  200008                     	org	2097160
  4629  200008  0FFF               	dw	4095
  4630                           
  4631                           ;Config register IDLOC5 @ 0x20000A
  4632                           ;	unspecified, using default values
  4633  20000A                     	org	2097162
  4634  20000A  0FFF               	dw	4095
  4635                           
  4636                           ;Config register IDLOC6 @ 0x20000C
  4637                           ;	unspecified, using default values
  4638  20000C                     	org	2097164
  4639  20000C  0FFF               	dw	4095
  4640                           
  4641                           ;Config register IDLOC7 @ 0x20000E
  4642                           ;	unspecified, using default values
  4643  20000E                     	org	2097166
  4644  20000E  0FFF               	dw	4095
  4645                           
  4646                           ;Config register IDLOC8 @ 0x200010
  4647                           ;	unspecified, using default values
  4648  200010                     	org	2097168
  4649  200010  0FFF               	dw	4095
  4650                           
  4651                           ;Config register IDLOC9 @ 0x200012
  4652                           ;	unspecified, using default values
  4653  200012                     	org	2097170
  4654  200012  0FFF               	dw	4095
  4655                           
  4656                           ;Config register IDLOC10 @ 0x200014
  4657                           ;	unspecified, using default values
  4658  200014                     	org	2097172
  4659  200014  0FFF               	dw	4095
  4660                           
  4661                           ;Config register IDLOC11 @ 0x200016
  4662                           ;	unspecified, using default values
  4663  200016                     	org	2097174
  4664  200016  0FFF               	dw	4095
  4665                           
  4666                           ;Config register IDLOC12 @ 0x200018
  4667                           ;	unspecified, using default values
  4668  200018                     	org	2097176
  4669  200018  0FFF               	dw	4095
  4670                           
  4671                           ;Config register IDLOC13 @ 0x20001A
  4672                           ;	unspecified, using default values
  4673  20001A                     	org	2097178
  4674  20001A  0FFF               	dw	4095
  4675                           
  4676                           ;Config register IDLOC14 @ 0x20001C
  4677                           ;	unspecified, using default values
  4678  20001C                     	org	2097180
  4679  20001C  0FFF               	dw	4095
  4680                           
  4681                           ;Config register IDLOC15 @ 0x20001E
  4682                           ;	unspecified, using default values
  4683  20001E                     	org	2097182
  4684  20001E  0FFF               	dw	4095
  4685                           
  4686                           ;Config register IDLOC16 @ 0x200020
  4687                           ;	unspecified, using default values
  4688  200020                     	org	2097184
  4689  200020  0FFF               	dw	4095
  4690                           
  4691                           ;Config register IDLOC17 @ 0x200022
  4692                           ;	unspecified, using default values
  4693  200022                     	org	2097186
  4694  200022  0FFF               	dw	4095
  4695                           
  4696                           ;Config register IDLOC18 @ 0x200024
  4697                           ;	unspecified, using default values
  4698  200024                     	org	2097188
  4699  200024  0FFF               	dw	4095
  4700                           
  4701                           ;Config register IDLOC19 @ 0x200026
  4702                           ;	unspecified, using default values
  4703  200026                     	org	2097190
  4704  200026  0FFF               	dw	4095
  4705                           
  4706                           ;Config register IDLOC20 @ 0x200028
  4707                           ;	unspecified, using default values
  4708  200028                     	org	2097192
  4709  200028  0FFF               	dw	4095
  4710                           
  4711                           ;Config register IDLOC21 @ 0x20002A
  4712                           ;	unspecified, using default values
  4713  20002A                     	org	2097194
  4714  20002A  0FFF               	dw	4095
  4715                           
  4716                           ;Config register IDLOC22 @ 0x20002C
  4717                           ;	unspecified, using default values
  4718  20002C                     	org	2097196
  4719  20002C  0FFF               	dw	4095
  4720                           
  4721                           ;Config register IDLOC23 @ 0x20002E
  4722                           ;	unspecified, using default values
  4723  20002E                     	org	2097198
  4724  20002E  0FFF               	dw	4095
  4725                           
  4726                           ;Config register IDLOC24 @ 0x200030
  4727                           ;	unspecified, using default values
  4728  200030                     	org	2097200
  4729  200030  0FFF               	dw	4095
  4730                           
  4731                           ;Config register IDLOC25 @ 0x200032
  4732                           ;	unspecified, using default values
  4733  200032                     	org	2097202
  4734  200032  0FFF               	dw	4095
  4735                           
  4736                           ;Config register IDLOC26 @ 0x200034
  4737                           ;	unspecified, using default values
  4738  200034                     	org	2097204
  4739  200034  0FFF               	dw	4095
  4740                           
  4741                           ;Config register IDLOC27 @ 0x200036
  4742                           ;	unspecified, using default values
  4743  200036                     	org	2097206
  4744  200036  0FFF               	dw	4095
  4745                           
  4746                           ;Config register IDLOC28 @ 0x200038
  4747                           ;	unspecified, using default values
  4748  200038                     	org	2097208
  4749  200038  0FFF               	dw	4095
  4750                           
  4751                           ;Config register IDLOC29 @ 0x20003A
  4752                           ;	unspecified, using default values
  4753  20003A                     	org	2097210
  4754  20003A  0FFF               	dw	4095
  4755                           
  4756                           ;Config register IDLOC30 @ 0x20003C
  4757                           ;	unspecified, using default values
  4758  20003C                     	org	2097212
  4759  20003C  0FFF               	dw	4095
  4760                           
  4761                           ;Config register IDLOC31 @ 0x20003E
  4762                           ;	unspecified, using default values
  4763  20003E                     	org	2097214
  4764  20003E  0FFF               	dw	4095
  4765                           
  4766                           	psect	config
  4767                           
  4768                           ;Config register CONFIG1 @ 0x300000
  4769                           ;	External Oscillator Selection
  4770                           ;	FEXTOSC = HS, HS (crystal oscillator) above 8 MHz
  4771                           ;	Reset Oscillator Selection
  4772                           ;	RSTOSC = EXTOSC, EXTOSC operating per FEXTOSC bits (device manufacturing default)
  4773  300000                     	org	3145728
  4774  300000  FA                 	db	250
  4775                           
  4776                           ;Config register CONFIG2 @ 0x300001
  4777                           ;	Clock out Enable bit
  4778                           ;	CLKOUTEN = OFF, CLKOUT function is disabled
  4779                           ;	PRLOCKED One-Way Set Enable bit
  4780                           ;	PR1WAY = ON, PRLOCKED bit can be cleared and set only once
  4781                           ;	Clock Switch Enable bit
  4782                           ;	CSWEN = ON, Writing to NOSC and NDIV is allowed
  4783                           ;	JTAG Enable bit
  4784                           ;	JTAGEN = ON, Enable JTAG Boundary Scan mode and pins
  4785                           ;	Fail-Safe Clock Monitor Enable bit
  4786                           ;	FCMEN = ON, Fail-Safe Clock Monitor enabled
  4787                           ;	Fail-Safe Clock Monitor -Primary XTAL Enable bit
  4788                           ;	FCMENP = ON, FSCM timer will set FSCMP bit and OSFIF interrupt on Primary XTAL failure
  4789                           ;	Fail-Safe Clock Monitor -Secondary XTAL Enable bit
  4790                           ;	FCMENS = ON, FSCM timer will set FSCMS bit and OSFIF interrupt on Secondary XTAL failu
      +                          re
  4791  300001                     	org	3145729
  4792  300001  FF                 	db	255
  4793                           
  4794                           ;Config register CONFIG3 @ 0x300002
  4795                           ;	MCLR Enable bit
  4796                           ;	MCLRE = EXTMCLR, If LVP = 0, MCLR pin is MCLR; If LVP = 1, RE3 pin function is MCLR
  4797                           ;	Power-up timer selection bits
  4798                           ;	PWRTS = PWRT_OFF, PWRT is disabled
  4799                           ;	Multi-vector enable bit
  4800                           ;	MVECEN = ON, Multi-vector enabled, Vector table used for interrupts
  4801                           ;	IVTLOCK bit One-way set enable bit
  4802                           ;	IVT1WAY = ON, IVTLOCKED bit can be cleared and set only once
  4803                           ;	Low Power BOR Enable bit
  4804                           ;	LPBOREN = OFF, Low-Power BOR disabled
  4805                           ;	Brown-out Reset Enable bits
  4806                           ;	BOREN = SBORDIS, Brown-out Reset enabled , SBOREN bit is ignored
  4807  300002                     	org	3145730
  4808  300002  FF                 	db	255
  4809                           
  4810                           ;Config register CONFIG4 @ 0x300003
  4811                           ;	Brown-out Reset Voltage Selection bits
  4812                           ;	BORV = VBOR_1P9, Brown-out Reset Voltage (VBOR) set to 1.9V
  4813                           ;	ZCD Disable bit
  4814                           ;	ZCD = OFF, ZCD module is disabled. ZCD can be enabled by setting the ZCDSEN bit of ZCD
      +                          CON
  4815                           ;	PPSLOCK bit One-Way Set Enable bit
  4816                           ;	PPS1WAY = ON, PPSLOCKED bit can be cleared and set only once; PPS registers remain loc
      +                          ked after one clear/set cycle
  4817                           ;	Stack Full/Underflow Reset Enable bit
  4818                           ;	STVREN = ON, Stack full/underflow will cause Reset
  4819                           ;	Low Voltage Programming Enable bit
  4820                           ;	LVP = OFF, HV on MCLR/VPP must be used for programming
  4821                           ;	Extended Instruction Set Enable bit
  4822                           ;	XINST = OFF, Extended Instruction Set and Indexed Addressing Mode disabled
  4823  300003                     	org	3145731
  4824  300003  DF                 	db	223
  4825                           
  4826                           ;Config register CONFIG5 @ 0x300004
  4827                           ;	WDT Period selection bits
  4828                           ;	WDTCPS = WDTCPS_31, Divider ratio 1:65536; software control of WDTPS
  4829                           ;	WDT operating mode
  4830                           ;	WDTE = OFF, WDT Disabled; SWDTEN is ignored
  4831  300004                     	org	3145732
  4832  300004  9F                 	db	159
  4833                           
  4834                           ;Config register CONFIG6 @ 0x300005
  4835                           ;	WDT Window Select bits
  4836                           ;	WDTCWS = WDTCWS_7, window always open (100%); software control; keyed access not requi
      +                          red
  4837                           ;	WDT input clock selector
  4838                           ;	WDTCCS = SC, Software Control
  4839  300005                     	org	3145733
  4840  300005  FF                 	db	255
  4841                           
  4842                           ;Config register CONFIG7 @ 0x300006
  4843                           ;	Boot Block Size selection bits
  4844                           ;	BBSIZE = BBSIZE_512, Boot Block size is 512 words
  4845                           ;	Boot Block enable bit
  4846                           ;	BBEN = OFF, Boot block disabled
  4847                           ;	Storage Area Flash enable bit
  4848                           ;	SAFEN = OFF, SAF disabled
  4849                           ;	Background Debugger
  4850                           ;	DEBUG = 0x1, unprogrammed default
  4851  300006                     	org	3145734
  4852  300006  FF                 	db	255
  4853                           
  4854                           ;Config register CONFIG8 @ 0x300007
  4855                           ;	Boot Block Write Protection bit
  4856                           ;	WRTB = OFF, Boot Block not Write protected
  4857                           ;	Configuration Register Write Protection bit
  4858                           ;	WRTC = OFF, Configuration registers not Write protected
  4859                           ;	Data EEPROM Write Protection bit
  4860                           ;	WRTD = OFF, Data EEPROM not Write protected
  4861                           ;	SAF Write protection bit
  4862                           ;	WRTSAF = OFF, SAF not Write Protected
  4863                           ;	Application Block write protection bit
  4864                           ;	WRTAPP = OFF, Application Block not write protected
  4865  300007                     	org	3145735
  4866  300007  FF                 	db	255
  4867                           
  4868                           ;Config register CONFIG9 @ 0x300008
  4869                           ;	CRC on boot output pin selection
  4870                           ;	BOOTPINSEL = RC5, CRC on boot output pin is RC5
  4871                           ;	CRC on boot output pin enable bit
  4872                           ;	BPEN = OFF, CRC on boot output pin disabled
  4873                           ;	CRC on boot output pin open drain bit
  4874                           ;	ODCON = OFF, Pin drives both high-going and low-going signals
  4875  300008                     	org	3145736
  4876  300008  FF                 	db	255
  4877                           
  4878                           ;Config register CONFIG10 @ 0x300009
  4879                           ;	PFM and Data EEPROM Code Protection bit
  4880                           ;	CP = OFF, PFM and Data EEPROM code protection disabled
  4881  300009                     	org	3145737
  4882  300009  FF                 	db	255
  4883                           
  4884                           ;Config register CONFIG11 @ 0x30000A
  4885                           ;	CRC on boot scan enable for boot area
  4886                           ;	BOOTSCEN = OFF, CRC on boot will not include the boot area of program memory in its ca
      +                          lculation
  4887                           ;	CRC on boot Continue on Error for boot areas bit
  4888                           ;	BOOTCOE = HALT, CRC on boot will stop device if error is detected in boot areas
  4889                           ;	CRC on boot application code scan enable
  4890                           ;	APPSCEN = OFF, CRC on boot will not include the application area of program memory in 
      +                          its calculation
  4891                           ;	CRC on boot SAF area scan enable
  4892                           ;	SAFSCEN = OFF, CRC on boot will not include the SAF area of program memory in its calc
      +                          ulation
  4893                           ;	CRC on boot Data EEPROM scan enable
  4894                           ;	DATASCEN = OFF, CRC on boot will not include data EEPROM in its calculation
  4895                           ;	CRC on boot Config fuses scan enable
  4896                           ;	CFGSCEN = OFF, CRC on boot will not include the configuration fuses in its calculation
  4897                           ;	CRC on boot Continue on Error for non-boot areas bit
  4898                           ;	COE = HALT, CRC on boot will stop device if error is detected in non-boot areas
  4899                           ;	Boot on CRC Enable bit
  4900                           ;	BOOTPOR = OFF, CRC on boot will not run
  4901  30000A                     	org	3145738
  4902  30000A  FF                 	db	255
  4903                           
  4904                           ;Config register CONFIG12 @ 0x30000B
  4905                           ;	Boot Sector Polynomial for CRC on boot bits 31-24
  4906                           ;	BCRCPOLT = hFF, Bits 31:24 of BCRCPOL are 0xFF
  4907  30000B                     	org	3145739
  4908  30000B  FF                 	db	255
  4909                           
  4910                           ;Config register CONFIG13 @ 0x30000C
  4911                           ;	Boot Sector Polynomial for CRC on boot bits 23-16
  4912                           ;	BCRCPOLU = hFF, Bits 23:16 of BCRCPOL are 0xFF
  4913  30000C                     	org	3145740
  4914  30000C  FF                 	db	255
  4915                           
  4916                           ;Config register CONFIG14 @ 0x30000D
  4917                           ;	Boot Sector Polynomial for CRC on boot bits 15-8
  4918                           ;	BCRCPOLH = hFF, Bits 15:8 of BCRCPOL are 0xFF
  4919  30000D                     	org	3145741
  4920  30000D  FF                 	db	255
  4921                           
  4922                           ;Config register CONFIG15 @ 0x30000E
  4923                           ;	Boot Sector Polynomial for CRC on boot bits 7-0
  4924                           ;	BCRCPOLL = hFF, Bits 7:0 of BCRCPOL are 0xFF
  4925  30000E                     	org	3145742
  4926  30000E  FF                 	db	255
  4927                           
  4928                           ;Config register CONFIG16 @ 0x30000F
  4929                           ;	Boot Sector Seed for CRC on boot bits 31-24
  4930                           ;	BCRCSEEDT = hFF, Bits 31:24 of BCRCSEED are 0xFF
  4931  30000F                     	org	3145743
  4932  30000F  FF                 	db	255
  4933                           
  4934                           ;Config register CONFIG17 @ 0x300010
  4935                           ;	Boot Sector Seed for CRC on boot bits 23-16
  4936                           ;	BCRCSEEDU = hFF, Bits 23:16 of BCRCSEED are 0xFF
  4937  300010                     	org	3145744
  4938  300010  FF                 	db	255
  4939                           
  4940                           ;Config register CONFIG18 @ 0x300011
  4941                           ;	Boot Sector Seed for CRC on boot bits 15-8
  4942                           ;	BCRCSEEDH = hFF, Bits 15:8 of BCRCSEED are 0xFF
  4943  300011                     	org	3145745
  4944  300011  FF                 	db	255
  4945                           
  4946                           ;Config register CONFIG19 @ 0x300012
  4947                           ;	Boot Sector Seed for CRC on boot bits 7-0
  4948                           ;	BCRCSEEDL = hFF, Bits 7:0 of BCRCSEED are 0xFF
  4949  300012                     	org	3145746
  4950  300012  FF                 	db	255
  4951                           
  4952                           ;Config register CONFIG20 @ 0x300013
  4953                           ;	unspecified, using default values
  4954                           ;	Boot Sector Expected Result for CRC on boot bits 31-24
  4955                           ;	BCRCEREST = 0xFF, unprogrammed default
  4956  300013                     	org	3145747
  4957  300013  FF                 	db	255
  4958                           
  4959                           ;Config register CONFIG21 @ 0x300014
  4960                           ;	unspecified, using default values
  4961                           ;	Boot Sector Expected Result for CRC on boot bits 23-16
  4962                           ;	BCRCERESU = 0xFF, unprogrammed default
  4963  300014                     	org	3145748
  4964  300014  FF                 	db	255
  4965                           
  4966                           ;Config register CONFIG22 @ 0x300015
  4967                           ;	unspecified, using default values
  4968                           ;	Boot Sector Expected Result for CRC on boot bits 15-8
  4969                           ;	BCRCERESH = 0xFF, unprogrammed default
  4970  300015                     	org	3145749
  4971  300015  FF                 	db	255
  4972                           
  4973                           ;Config register CONFIG23 @ 0x300016
  4974                           ;	unspecified, using default values
  4975                           ;	Boot Sector Expected Result for CRC on boot bits 7-0
  4976                           ;	BCRCERESL = 0xFF, unprogrammed default
  4977  300016                     	org	3145750
  4978  300016  FF                 	db	255
  4979                           
  4980                           ;Config register CONFIG24 @ 0x300017
  4981                           ;	Non-Boot Sector Polynomial for CRC on boot bits 31-24
  4982                           ;	CRCPOLT = hFF, Bits 31:24 of CRCPOL are 0xFF
  4983  300017                     	org	3145751
  4984  300017  FF                 	db	255
  4985                           
  4986                           ;Config register CONFIG25 @ 0x300018
  4987                           ;	Non-Boot Sector Polynomial for CRC on boot bits 23-16
  4988                           ;	CRCPOLU = hFF, Bits 23:16 of CRCPOL are 0xFF
  4989  300018                     	org	3145752
  4990  300018  FF                 	db	255
  4991                           
  4992                           ;Config register CONFIG26 @ 0x300019
  4993                           ;	Non-Boot Sector Polynomial for CRC on boot bits 15-8
  4994                           ;	CRCPOLH = hFF, Bits 15:8 of CRCPOL are 0xFF
  4995  300019                     	org	3145753
  4996  300019  FF                 	db	255
  4997                           
  4998                           ;Config register CONFIG27 @ 0x30001A
  4999                           ;	Non-Boot Sector Polynomial for CRC on boot bits 7-0
  5000                           ;	CRCPOLL = hFF, Bits 7:0 of CRCPOL are 0xFF
  5001  30001A                     	org	3145754
  5002  30001A  FF                 	db	255
  5003                           
  5004                           ;Config register CONFIG28 @ 0x30001B
  5005                           ;	Non-Boot Sector Seed for CRC on boot bits 31-24
  5006                           ;	CRCSEEDT = hFF, Bits 31:24 of CRCSEED are 0xFF
  5007  30001B                     	org	3145755
  5008  30001B  FF                 	db	255
  5009                           
  5010                           ;Config register CONFIG29 @ 0x30001C
  5011                           ;	Non-Boot Sector Seed for CRC on boot bits 23-16
  5012                           ;	CRCSEEDU = hFF, Bits 23:16 of CRCSEED are 0xFF
  5013  30001C                     	org	3145756
  5014  30001C  FF                 	db	255
  5015                           
  5016                           ;Config register CONFIG30 @ 0x30001D
  5017                           ;	Non-Boot Sector Seed for CRC on boot bits 15-8
  5018                           ;	CRCSEEDH = hFF, Bits 15:8 of CRCSEED are 0xFF
  5019  30001D                     	org	3145757
  5020  30001D  FF                 	db	255
  5021                           
  5022                           ;Config register CONFIG31 @ 0x30001E
  5023                           ;	Non-Boot Sector Seed for CRC on boot bits 7-0
  5024                           ;	CRCSEEDL = hFF, Bits 7:0 of CRCSEED are 0xFF
  5025  30001E                     	org	3145758
  5026  30001E  FF                 	db	255
  5027                           
  5028                           ;Config register CONFIG32 @ 0x30001F
  5029                           ;	unspecified, using default values
  5030                           ;	Non-Boot Sector Expected Result for CRC on boot bits 31-24
  5031                           ;	CRCEREST = 0xFF, unprogrammed default
  5032  30001F                     	org	3145759
  5033  30001F  FF                 	db	255
  5034                           
  5035                           ;Config register CONFIG33 @ 0x300020
  5036                           ;	unspecified, using default values
  5037                           ;	Non-Boot Sector Expected Result for CRC on boot bits 23-16
  5038                           ;	CRCERESU = 0xFF, unprogrammed default
  5039  300020                     	org	3145760
  5040  300020  FF                 	db	255
  5041                           
  5042                           ;Config register CONFIG34 @ 0x300021
  5043                           ;	unspecified, using default values
  5044                           ;	Non-Boot Sector Expected Result for CRC on boot bits 15-8
  5045                           ;	CRCERESH = 0xFF, unprogrammed default
  5046  300021                     	org	3145761
  5047  300021  FF                 	db	255
  5048                           
  5049                           ;Config register CONFIG35 @ 0x300022
  5050                           ;	unspecified, using default values
  5051                           ;	Non-Boot Sector Expected Result for CRC on boot bits 7-0
  5052                           ;	CRCERESL = 0xFF, unprogrammed default
  5053  300022                     	org	3145762
  5054  300022  FF                 	db	255
  5055                           tosu	equ	0x4FF
  5056                           tosh	equ	0x4FE
  5057                           tosl	equ	0x4FD
  5058                           stkptr	equ	0x4FC
  5059                           pclatu	equ	0x4FB
  5060                           pclath	equ	0x4FA
  5061                           pcl	equ	0x4F9
  5062                           tblptru	equ	0x4F8
  5063                           tblptrh	equ	0x4F7
  5064                           tblptrl	equ	0x4F6
  5065                           tablat	equ	0x4F5
  5066                           prodh	equ	0x4F4
  5067                           prodl	equ	0x4F3
  5068                           indf0	equ	0x4EF
  5069                           postinc0	equ	0x4EE
  5070                           postdec0	equ	0x4ED
  5071                           preinc0	equ	0x4EC
  5072                           plusw0	equ	0x4EB
  5073                           fsr0h	equ	0x4EA
  5074                           fsr0l	equ	0x4E9
  5075                           wreg	equ	0x4E8
  5076                           indf1	equ	0x4E7
  5077                           postinc1	equ	0x4E6
  5078                           postdec1	equ	0x4E5
  5079                           preinc1	equ	0x4E4
  5080                           plusw1	equ	0x4E3
  5081                           fsr1h	equ	0x4E2
  5082                           fsr1l	equ	0x4E1
  5083                           bsr	equ	0x4E0
  5084                           indf2	equ	0x4DF
  5085                           postinc2	equ	0x4DE
  5086                           postdec2	equ	0x4DD
  5087                           preinc2	equ	0x4DC
  5088                           plusw2	equ	0x4DB
  5089                           fsr2h	equ	0x4DA
  5090                           fsr2l	equ	0x4D9
  5091                           status	equ	0x4D8

Data Sizes:
    Strings     0
    Constant    18
    Data        2
    BSS         460
    Persistent  35
    Stack       0

Auto Spaces:
    Space          Size  Autos    Used
    COMRAM           95     14      63
    BANK5           160      0     128
    BANK6           256      0     256
    BANK7           256      0      64
    BANK8           256      0       0
    BANK9           256      0       0
    BANK10          256      0       0
    BANK11          256      0       0
    BANK12          256      0       0
    BANK13          256      0       0
    BANK14          256      0       0
    BANK15          256      0       0
    BANK16          256      0       0
    BANK17          256      0       0
    BANK18          256      0       0
    BANK19          256      0       0
    BANK20          256      0       0
    BANK21          256      0       0
    BANK22          256      0       0
    BANK23          256      0       0
    BANK24          256      0       0
    BANK25          256      0       0
    BANK26          256      0       0
    BANK27          256      0       0
    BANK28          256      0       0
    BANK29          256      0       0
    BANK30          256      0       0
    BANK31          256      0       0
    BANK32          256      0       0
    BANK33          256      0       0
    BANK34          256      0       0
    BANK35          256      0       0
    BANK36          256      0       0
    BANK37          256      0       0
    BANK38          256      0       0
    BANK39          256      0       0
    BANK40          256      0       0
    BANK41          256      0       0
    BANK42          256      0       0
    BANK43          256      0       0
    BANK44          256      0       0
    BANK45          256      0       0
    BANK46          256      0       0
    BANK47          256      0       0
    BANK48          256      0       0
    BANK49          256      0       0
    BANK50          256      0       0
    BANK51          256      0       0
    BANK52          256      0       0
    BANK53          256      0       0
    BANK54          256      0       0

Pointer List with Targets:

    UART1_SetTxInterruptHandler@InterruptHandler	PTR FTN()void  size(3) Largest target is 1
		 -> UART1_Transmit_ISR(), 

    UART1_SetRxInterruptHandler@InterruptHandler	PTR FTN()void  size(3) Largest target is 1
		 -> UART1_Receive_ISR(), 

    UART1_SetErrorHandler@interruptHandler	PTR FTN()void  size(3) Largest target is 1
		 -> UART1_DefaultErrorHandler(), 

    UART1_SetOverrunErrorHandler@interruptHandler	PTR FTN()void  size(3) Largest target is 1
		 -> UART1_DefaultOverrunErrorHandler(), 

    UART1_SetFramingErrorHandler@interruptHandler	PTR FTN()void  size(3) Largest target is 1
		 -> UART1_DefaultFramingErrorHandler(), 

    UART1_ErrorHandler	PTR FTN()void  size(3) Largest target is 1
		 -> UART1_DefaultErrorHandler(), Absolute function(), 

    UART1_OverrunErrorHandler	PTR FTN()void  size(3) Largest target is 1
		 -> UART1_DefaultOverrunErrorHandler(), Absolute function(), 

    UART1_FramingErrorHandler	PTR FTN()void  size(3) Largest target is 1
		 -> UART1_DefaultFramingErrorHandler(), Absolute function(), 

    UART1_RxInterruptHandler	PTR FTN()void  size(3) Largest target is 1
		 -> UART1_Receive_ISR(), Absolute function(), 

    UART1_TxInterruptHandler	PTR FTN()void  size(3) Largest target is 1
		 -> UART1_Transmit_ISR(), Absolute function(), 

    UART2_SetTxInterruptHandler@InterruptHandler	PTR FTN()void  size(3) Largest target is 1
		 -> UART2_Transmit_ISR(), 

    UART2_SetRxInterruptHandler@InterruptHandler	PTR FTN()void  size(3) Largest target is 1
		 -> UART2_Receive_ISR(), 

    UART2_SetErrorHandler@interruptHandler	PTR FTN()void  size(3) Largest target is 1
		 -> UART2_DefaultErrorHandler(), 

    UART2_SetOverrunErrorHandler@interruptHandler	PTR FTN()void  size(3) Largest target is 1
		 -> UART2_DefaultOverrunErrorHandler(), 

    UART2_SetFramingErrorHandler@interruptHandler	PTR FTN()void  size(3) Largest target is 1
		 -> UART2_DefaultFramingErrorHandler(), 

    UART2_ErrorHandler	PTR FTN()void  size(3) Largest target is 1
		 -> UART2_DefaultErrorHandler(), Absolute function(), 

    UART2_OverrunErrorHandler	PTR FTN()void  size(3) Largest target is 1
		 -> UART2_DefaultOverrunErrorHandler(), Absolute function(), 

    UART2_FramingErrorHandler	PTR FTN()void  size(3) Largest target is 1
		 -> UART2_DefaultFramingErrorHandler(), Absolute function(), 

    UART2_RxInterruptHandler	PTR FTN()void  size(3) Largest target is 1
		 -> UART2_Receive_ISR(), Absolute function(), 

    UART2_TxInterruptHandler	PTR FTN()void  size(3) Largest target is 1
		 -> UART2_Transmit_ISR(), Absolute function(), 

    TMR0_SetInterruptHandler@InterruptHandler	PTR FTN()void  size(3) Largest target is 1
		 -> tmr0_isr(), TMR0_DefaultInterruptHandler(), 

    TMR0_InterruptHandler	PTR FTN()void  size(3) Largest target is 1
		 -> tmr0_isr(), Absolute function(), TMR0_DefaultInterruptHandler(), 

    ValidateTransmission@txCanMsg.data	PTR unsigned char  size(2) Largest target is 64
		 -> rxMsgData(BANK7[64]), 

    WriteMessageToFifo@txCanMsg.data	PTR unsigned char  size(2) Largest target is 64
		 -> rxMsgData(BANK7[64]), 

    sp__memcpy	PTR void  size(2) Largest target is 14079
		 -> RAM(DATA[14079]), rxMsgData(BANK7[64]), 

    S302$data	PTR unsigned char  size(2) Largest target is 64
		 -> rxMsgData(BANK7[64]), 

    ReadMessageFromFifo@rxCanMsg.data	PTR unsigned char  size(2) Largest target is 64
		 -> rxMsgData(BANK7[64]), 

    FIFO	const PTR volatile struct CAN_FIFOREG size(2) Largest target is 1
		 -> C1TXQCONL(BITBIGSFRhhhllllllllllll[1]), 


Critical Paths under _main in COMRAM

    _main->_TMR0_SetInterruptHandler
    _UART2_Initialize->_UART2_SetErrorHandler
    _UART2_Initialize->_UART2_SetFramingErrorHandler
    _UART2_Initialize->_UART2_SetOverrunErrorHandler
    _UART2_Initialize->_UART2_SetRxInterruptHandler
    _UART2_Initialize->_UART2_SetTxInterruptHandler
    _UART1_Initialize->_UART1_SetErrorHandler
    _UART1_Initialize->_UART1_SetFramingErrorHandler
    _UART1_Initialize->_UART1_SetOverrunErrorHandler
    _UART1_Initialize->_UART1_SetRxInterruptHandler
    _UART1_Initialize->_UART1_SetTxInterruptHandler
    _TMR0_Initialize->_TMR0_SetInterruptHandler
    _CAN1_Initialize->_CAN1_OperationModeSet

Critical Paths under _TMR0_ISR in COMRAM

    _TMR0_ISR->_tmr0_isr

Critical Paths under _Default_ISR in COMRAM

    None.

Critical Paths under _UART2_tx_vect_isr in COMRAM

    None.

Critical Paths under _UART2_rx_vect_isr in COMRAM

    None.

Critical Paths under _UART1_tx_vect_isr in COMRAM

    None.

Critical Paths under _UART1_rx_vect_isr in COMRAM

    None.

Critical Paths under _main in BANK5

    None.

Critical Paths under _TMR0_ISR in BANK5

    None.

Critical Paths under _Default_ISR in BANK5

    None.

Critical Paths under _UART2_tx_vect_isr in BANK5

    None.

Critical Paths under _UART2_rx_vect_isr in BANK5

    None.

Critical Paths under _UART1_tx_vect_isr in BANK5

    None.

Critical Paths under _UART1_rx_vect_isr in BANK5

    None.

Critical Paths under _main in BANK6

    None.

Critical Paths under _TMR0_ISR in BANK6

    None.

Critical Paths under _Default_ISR in BANK6

    None.

Critical Paths under _UART2_tx_vect_isr in BANK6

    None.

Critical Paths under _UART2_rx_vect_isr in BANK6

    None.

Critical Paths under _UART1_tx_vect_isr in BANK6

    None.

Critical Paths under _UART1_rx_vect_isr in BANK6

    None.

Critical Paths under _main in BANK7

    None.

Critical Paths under _TMR0_ISR in BANK7

    None.

Critical Paths under _Default_ISR in BANK7

    None.

Critical Paths under _UART2_tx_vect_isr in BANK7

    None.

Critical Paths under _UART2_rx_vect_isr in BANK7

    None.

Critical Paths under _UART1_tx_vect_isr in BANK7

    None.

Critical Paths under _UART1_rx_vect_isr in BANK7

    None.

Critical Paths under _main in BANK8

    None.

Critical Paths under _TMR0_ISR in BANK8

    None.

Critical Paths under _Default_ISR in BANK8

    None.

Critical Paths under _UART2_tx_vect_isr in BANK8

    None.

Critical Paths under _UART2_rx_vect_isr in BANK8

    None.

Critical Paths under _UART1_tx_vect_isr in BANK8

    None.

Critical Paths under _UART1_rx_vect_isr in BANK8

    None.

Critical Paths under _main in BANK9

    None.

Critical Paths under _TMR0_ISR in BANK9

    None.

Critical Paths under _Default_ISR in BANK9

    None.

Critical Paths under _UART2_tx_vect_isr in BANK9

    None.

Critical Paths under _UART2_rx_vect_isr in BANK9

    None.

Critical Paths under _UART1_tx_vect_isr in BANK9

    None.

Critical Paths under _UART1_rx_vect_isr in BANK9

    None.

Critical Paths under _main in BANK10

    None.

Critical Paths under _TMR0_ISR in BANK10

    None.

Critical Paths under _Default_ISR in BANK10

    None.

Critical Paths under _UART2_tx_vect_isr in BANK10

    None.

Critical Paths under _UART2_rx_vect_isr in BANK10

    None.

Critical Paths under _UART1_tx_vect_isr in BANK10

    None.

Critical Paths under _UART1_rx_vect_isr in BANK10

    None.

Critical Paths under _main in BANK11

    None.

Critical Paths under _TMR0_ISR in BANK11

    None.

Critical Paths under _Default_ISR in BANK11

    None.

Critical Paths under _UART2_tx_vect_isr in BANK11

    None.

Critical Paths under _UART2_rx_vect_isr in BANK11

    None.

Critical Paths under _UART1_tx_vect_isr in BANK11

    None.

Critical Paths under _UART1_rx_vect_isr in BANK11

    None.

Critical Paths under _main in BANK12

    None.

Critical Paths under _TMR0_ISR in BANK12

    None.

Critical Paths under _Default_ISR in BANK12

    None.

Critical Paths under _UART2_tx_vect_isr in BANK12

    None.

Critical Paths under _UART2_rx_vect_isr in BANK12

    None.

Critical Paths under _UART1_tx_vect_isr in BANK12

    None.

Critical Paths under _UART1_rx_vect_isr in BANK12

    None.

Critical Paths under _main in BANK13

    None.

Critical Paths under _TMR0_ISR in BANK13

    None.

Critical Paths under _Default_ISR in BANK13

    None.

Critical Paths under _UART2_tx_vect_isr in BANK13

    None.

Critical Paths under _UART2_rx_vect_isr in BANK13

    None.

Critical Paths under _UART1_tx_vect_isr in BANK13

    None.

Critical Paths under _UART1_rx_vect_isr in BANK13

    None.

Critical Paths under _main in BANK14

    None.

Critical Paths under _TMR0_ISR in BANK14

    None.

Critical Paths under _Default_ISR in BANK14

    None.

Critical Paths under _UART2_tx_vect_isr in BANK14

    None.

Critical Paths under _UART2_rx_vect_isr in BANK14

    None.

Critical Paths under _UART1_tx_vect_isr in BANK14

    None.

Critical Paths under _UART1_rx_vect_isr in BANK14

    None.

Critical Paths under _main in BANK15

    None.

Critical Paths under _TMR0_ISR in BANK15

    None.

Critical Paths under _Default_ISR in BANK15

    None.

Critical Paths under _UART2_tx_vect_isr in BANK15

    None.

Critical Paths under _UART2_rx_vect_isr in BANK15

    None.

Critical Paths under _UART1_tx_vect_isr in BANK15

    None.

Critical Paths under _UART1_rx_vect_isr in BANK15

    None.

Critical Paths under _main in BANK16

    None.

Critical Paths under _TMR0_ISR in BANK16

    None.

Critical Paths under _Default_ISR in BANK16

    None.

Critical Paths under _UART2_tx_vect_isr in BANK16

    None.

Critical Paths under _UART2_rx_vect_isr in BANK16

    None.

Critical Paths under _UART1_tx_vect_isr in BANK16

    None.

Critical Paths under _UART1_rx_vect_isr in BANK16

    None.

Critical Paths under _main in BANK17

    None.

Critical Paths under _TMR0_ISR in BANK17

    None.

Critical Paths under _Default_ISR in BANK17

    None.

Critical Paths under _UART2_tx_vect_isr in BANK17

    None.

Critical Paths under _UART2_rx_vect_isr in BANK17

    None.

Critical Paths under _UART1_tx_vect_isr in BANK17

    None.

Critical Paths under _UART1_rx_vect_isr in BANK17

    None.

Critical Paths under _main in BANK18

    None.

Critical Paths under _TMR0_ISR in BANK18

    None.

Critical Paths under _Default_ISR in BANK18

    None.

Critical Paths under _UART2_tx_vect_isr in BANK18

    None.

Critical Paths under _UART2_rx_vect_isr in BANK18

    None.

Critical Paths under _UART1_tx_vect_isr in BANK18

    None.

Critical Paths under _UART1_rx_vect_isr in BANK18

    None.

Critical Paths under _main in BANK19

    None.

Critical Paths under _TMR0_ISR in BANK19

    None.

Critical Paths under _Default_ISR in BANK19

    None.

Critical Paths under _UART2_tx_vect_isr in BANK19

    None.

Critical Paths under _UART2_rx_vect_isr in BANK19

    None.

Critical Paths under _UART1_tx_vect_isr in BANK19

    None.

Critical Paths under _UART1_rx_vect_isr in BANK19

    None.

Critical Paths under _main in BANK20

    None.

Critical Paths under _TMR0_ISR in BANK20

    None.

Critical Paths under _Default_ISR in BANK20

    None.

Critical Paths under _UART2_tx_vect_isr in BANK20

    None.

Critical Paths under _UART2_rx_vect_isr in BANK20

    None.

Critical Paths under _UART1_tx_vect_isr in BANK20

    None.

Critical Paths under _UART1_rx_vect_isr in BANK20

    None.

Critical Paths under _main in BANK21

    None.

Critical Paths under _TMR0_ISR in BANK21

    None.

Critical Paths under _Default_ISR in BANK21

    None.

Critical Paths under _UART2_tx_vect_isr in BANK21

    None.

Critical Paths under _UART2_rx_vect_isr in BANK21

    None.

Critical Paths under _UART1_tx_vect_isr in BANK21

    None.

Critical Paths under _UART1_rx_vect_isr in BANK21

    None.

Critical Paths under _main in BANK22

    None.

Critical Paths under _TMR0_ISR in BANK22

    None.

Critical Paths under _Default_ISR in BANK22

    None.

Critical Paths under _UART2_tx_vect_isr in BANK22

    None.

Critical Paths under _UART2_rx_vect_isr in BANK22

    None.

Critical Paths under _UART1_tx_vect_isr in BANK22

    None.

Critical Paths under _UART1_rx_vect_isr in BANK22

    None.

Critical Paths under _main in BANK23

    None.

Critical Paths under _TMR0_ISR in BANK23

    None.

Critical Paths under _Default_ISR in BANK23

    None.

Critical Paths under _UART2_tx_vect_isr in BANK23

    None.

Critical Paths under _UART2_rx_vect_isr in BANK23

    None.

Critical Paths under _UART1_tx_vect_isr in BANK23

    None.

Critical Paths under _UART1_rx_vect_isr in BANK23

    None.

Critical Paths under _main in BANK24

    None.

Critical Paths under _TMR0_ISR in BANK24

    None.

Critical Paths under _Default_ISR in BANK24

    None.

Critical Paths under _UART2_tx_vect_isr in BANK24

    None.

Critical Paths under _UART2_rx_vect_isr in BANK24

    None.

Critical Paths under _UART1_tx_vect_isr in BANK24

    None.

Critical Paths under _UART1_rx_vect_isr in BANK24

    None.

Critical Paths under _main in BANK25

    None.

Critical Paths under _TMR0_ISR in BANK25

    None.

Critical Paths under _Default_ISR in BANK25

    None.

Critical Paths under _UART2_tx_vect_isr in BANK25

    None.

Critical Paths under _UART2_rx_vect_isr in BANK25

    None.

Critical Paths under _UART1_tx_vect_isr in BANK25

    None.

Critical Paths under _UART1_rx_vect_isr in BANK25

    None.

Critical Paths under _main in BANK26

    None.

Critical Paths under _TMR0_ISR in BANK26

    None.

Critical Paths under _Default_ISR in BANK26

    None.

Critical Paths under _UART2_tx_vect_isr in BANK26

    None.

Critical Paths under _UART2_rx_vect_isr in BANK26

    None.

Critical Paths under _UART1_tx_vect_isr in BANK26

    None.

Critical Paths under _UART1_rx_vect_isr in BANK26

    None.

Critical Paths under _main in BANK27

    None.

Critical Paths under _TMR0_ISR in BANK27

    None.

Critical Paths under _Default_ISR in BANK27

    None.

Critical Paths under _UART2_tx_vect_isr in BANK27

    None.

Critical Paths under _UART2_rx_vect_isr in BANK27

    None.

Critical Paths under _UART1_tx_vect_isr in BANK27

    None.

Critical Paths under _UART1_rx_vect_isr in BANK27

    None.

Critical Paths under _main in BANK28

    None.

Critical Paths under _TMR0_ISR in BANK28

    None.

Critical Paths under _Default_ISR in BANK28

    None.

Critical Paths under _UART2_tx_vect_isr in BANK28

    None.

Critical Paths under _UART2_rx_vect_isr in BANK28

    None.

Critical Paths under _UART1_tx_vect_isr in BANK28

    None.

Critical Paths under _UART1_rx_vect_isr in BANK28

    None.

Critical Paths under _main in BANK29

    None.

Critical Paths under _TMR0_ISR in BANK29

    None.

Critical Paths under _Default_ISR in BANK29

    None.

Critical Paths under _UART2_tx_vect_isr in BANK29

    None.

Critical Paths under _UART2_rx_vect_isr in BANK29

    None.

Critical Paths under _UART1_tx_vect_isr in BANK29

    None.

Critical Paths under _UART1_rx_vect_isr in BANK29

    None.

Critical Paths under _main in BANK30

    None.

Critical Paths under _TMR0_ISR in BANK30

    None.

Critical Paths under _Default_ISR in BANK30

    None.

Critical Paths under _UART2_tx_vect_isr in BANK30

    None.

Critical Paths under _UART2_rx_vect_isr in BANK30

    None.

Critical Paths under _UART1_tx_vect_isr in BANK30

    None.

Critical Paths under _UART1_rx_vect_isr in BANK30

    None.

Critical Paths under _main in BANK31

    None.

Critical Paths under _TMR0_ISR in BANK31

    None.

Critical Paths under _Default_ISR in BANK31

    None.

Critical Paths under _UART2_tx_vect_isr in BANK31

    None.

Critical Paths under _UART2_rx_vect_isr in BANK31

    None.

Critical Paths under _UART1_tx_vect_isr in BANK31

    None.

Critical Paths under _UART1_rx_vect_isr in BANK31

    None.

Critical Paths under _main in BANK32

    None.

Critical Paths under _TMR0_ISR in BANK32

    None.

Critical Paths under _Default_ISR in BANK32

    None.

Critical Paths under _UART2_tx_vect_isr in BANK32

    None.

Critical Paths under _UART2_rx_vect_isr in BANK32

    None.

Critical Paths under _UART1_tx_vect_isr in BANK32

    None.

Critical Paths under _UART1_rx_vect_isr in BANK32

    None.

Critical Paths under _main in BANK33

    None.

Critical Paths under _TMR0_ISR in BANK33

    None.

Critical Paths under _Default_ISR in BANK33

    None.

Critical Paths under _UART2_tx_vect_isr in BANK33

    None.

Critical Paths under _UART2_rx_vect_isr in BANK33

    None.

Critical Paths under _UART1_tx_vect_isr in BANK33

    None.

Critical Paths under _UART1_rx_vect_isr in BANK33

    None.

Critical Paths under _main in BANK34

    None.

Critical Paths under _TMR0_ISR in BANK34

    None.

Critical Paths under _Default_ISR in BANK34

    None.

Critical Paths under _UART2_tx_vect_isr in BANK34

    None.

Critical Paths under _UART2_rx_vect_isr in BANK34

    None.

Critical Paths under _UART1_tx_vect_isr in BANK34

    None.

Critical Paths under _UART1_rx_vect_isr in BANK34

    None.

Critical Paths under _main in BANK35

    None.

Critical Paths under _TMR0_ISR in BANK35

    None.

Critical Paths under _Default_ISR in BANK35

    None.

Critical Paths under _UART2_tx_vect_isr in BANK35

    None.

Critical Paths under _UART2_rx_vect_isr in BANK35

    None.

Critical Paths under _UART1_tx_vect_isr in BANK35

    None.

Critical Paths under _UART1_rx_vect_isr in BANK35

    None.

Critical Paths under _main in BANK36

    None.

Critical Paths under _TMR0_ISR in BANK36

    None.

Critical Paths under _Default_ISR in BANK36

    None.

Critical Paths under _UART2_tx_vect_isr in BANK36

    None.

Critical Paths under _UART2_rx_vect_isr in BANK36

    None.

Critical Paths under _UART1_tx_vect_isr in BANK36

    None.

Critical Paths under _UART1_rx_vect_isr in BANK36

    None.

Critical Paths under _main in BANK37

    None.

Critical Paths under _TMR0_ISR in BANK37

    None.

Critical Paths under _Default_ISR in BANK37

    None.

Critical Paths under _UART2_tx_vect_isr in BANK37

    None.

Critical Paths under _UART2_rx_vect_isr in BANK37

    None.

Critical Paths under _UART1_tx_vect_isr in BANK37

    None.

Critical Paths under _UART1_rx_vect_isr in BANK37

    None.

Critical Paths under _main in BANK38

    None.

Critical Paths under _TMR0_ISR in BANK38

    None.

Critical Paths under _Default_ISR in BANK38

    None.

Critical Paths under _UART2_tx_vect_isr in BANK38

    None.

Critical Paths under _UART2_rx_vect_isr in BANK38

    None.

Critical Paths under _UART1_tx_vect_isr in BANK38

    None.

Critical Paths under _UART1_rx_vect_isr in BANK38

    None.

Critical Paths under _main in BANK39

    None.

Critical Paths under _TMR0_ISR in BANK39

    None.

Critical Paths under _Default_ISR in BANK39

    None.

Critical Paths under _UART2_tx_vect_isr in BANK39

    None.

Critical Paths under _UART2_rx_vect_isr in BANK39

    None.

Critical Paths under _UART1_tx_vect_isr in BANK39

    None.

Critical Paths under _UART1_rx_vect_isr in BANK39

    None.

Critical Paths under _main in BANK40

    None.

Critical Paths under _TMR0_ISR in BANK40

    None.

Critical Paths under _Default_ISR in BANK40

    None.

Critical Paths under _UART2_tx_vect_isr in BANK40

    None.

Critical Paths under _UART2_rx_vect_isr in BANK40

    None.

Critical Paths under _UART1_tx_vect_isr in BANK40

    None.

Critical Paths under _UART1_rx_vect_isr in BANK40

    None.

Critical Paths under _main in BANK41

    None.

Critical Paths under _TMR0_ISR in BANK41

    None.

Critical Paths under _Default_ISR in BANK41

    None.

Critical Paths under _UART2_tx_vect_isr in BANK41

    None.

Critical Paths under _UART2_rx_vect_isr in BANK41

    None.

Critical Paths under _UART1_tx_vect_isr in BANK41

    None.

Critical Paths under _UART1_rx_vect_isr in BANK41

    None.

Critical Paths under _main in BANK42

    None.

Critical Paths under _TMR0_ISR in BANK42

    None.

Critical Paths under _Default_ISR in BANK42

    None.

Critical Paths under _UART2_tx_vect_isr in BANK42

    None.

Critical Paths under _UART2_rx_vect_isr in BANK42

    None.

Critical Paths under _UART1_tx_vect_isr in BANK42

    None.

Critical Paths under _UART1_rx_vect_isr in BANK42

    None.

Critical Paths under _main in BANK43

    None.

Critical Paths under _TMR0_ISR in BANK43

    None.

Critical Paths under _Default_ISR in BANK43

    None.

Critical Paths under _UART2_tx_vect_isr in BANK43

    None.

Critical Paths under _UART2_rx_vect_isr in BANK43

    None.

Critical Paths under _UART1_tx_vect_isr in BANK43

    None.

Critical Paths under _UART1_rx_vect_isr in BANK43

    None.

Critical Paths under _main in BANK44

    None.

Critical Paths under _TMR0_ISR in BANK44

    None.

Critical Paths under _Default_ISR in BANK44

    None.

Critical Paths under _UART2_tx_vect_isr in BANK44

    None.

Critical Paths under _UART2_rx_vect_isr in BANK44

    None.

Critical Paths under _UART1_tx_vect_isr in BANK44

    None.

Critical Paths under _UART1_rx_vect_isr in BANK44

    None.

Critical Paths under _main in BANK45

    None.

Critical Paths under _TMR0_ISR in BANK45

    None.

Critical Paths under _Default_ISR in BANK45

    None.

Critical Paths under _UART2_tx_vect_isr in BANK45

    None.

Critical Paths under _UART2_rx_vect_isr in BANK45

    None.

Critical Paths under _UART1_tx_vect_isr in BANK45

    None.

Critical Paths under _UART1_rx_vect_isr in BANK45

    None.

Critical Paths under _main in BANK46

    None.

Critical Paths under _TMR0_ISR in BANK46

    None.

Critical Paths under _Default_ISR in BANK46

    None.

Critical Paths under _UART2_tx_vect_isr in BANK46

    None.

Critical Paths under _UART2_rx_vect_isr in BANK46

    None.

Critical Paths under _UART1_tx_vect_isr in BANK46

    None.

Critical Paths under _UART1_rx_vect_isr in BANK46

    None.

Critical Paths under _main in BANK47

    None.

Critical Paths under _TMR0_ISR in BANK47

    None.

Critical Paths under _Default_ISR in BANK47

    None.

Critical Paths under _UART2_tx_vect_isr in BANK47

    None.

Critical Paths under _UART2_rx_vect_isr in BANK47

    None.

Critical Paths under _UART1_tx_vect_isr in BANK47

    None.

Critical Paths under _UART1_rx_vect_isr in BANK47

    None.

Critical Paths under _main in BANK48

    None.

Critical Paths under _TMR0_ISR in BANK48

    None.

Critical Paths under _Default_ISR in BANK48

    None.

Critical Paths under _UART2_tx_vect_isr in BANK48

    None.

Critical Paths under _UART2_rx_vect_isr in BANK48

    None.

Critical Paths under _UART1_tx_vect_isr in BANK48

    None.

Critical Paths under _UART1_rx_vect_isr in BANK48

    None.

Critical Paths under _main in BANK49

    None.

Critical Paths under _TMR0_ISR in BANK49

    None.

Critical Paths under _Default_ISR in BANK49

    None.

Critical Paths under _UART2_tx_vect_isr in BANK49

    None.

Critical Paths under _UART2_rx_vect_isr in BANK49

    None.

Critical Paths under _UART1_tx_vect_isr in BANK49

    None.

Critical Paths under _UART1_rx_vect_isr in BANK49

    None.

Critical Paths under _main in BANK50

    None.

Critical Paths under _TMR0_ISR in BANK50

    None.

Critical Paths under _Default_ISR in BANK50

    None.

Critical Paths under _UART2_tx_vect_isr in BANK50

    None.

Critical Paths under _UART2_rx_vect_isr in BANK50

    None.

Critical Paths under _UART1_tx_vect_isr in BANK50

    None.

Critical Paths under _UART1_rx_vect_isr in BANK50

    None.

Critical Paths under _main in BANK51

    None.

Critical Paths under _TMR0_ISR in BANK51

    None.

Critical Paths under _Default_ISR in BANK51

    None.

Critical Paths under _UART2_tx_vect_isr in BANK51

    None.

Critical Paths under _UART2_rx_vect_isr in BANK51

    None.

Critical Paths under _UART1_tx_vect_isr in BANK51

    None.

Critical Paths under _UART1_rx_vect_isr in BANK51

    None.

Critical Paths under _main in BANK52

    None.

Critical Paths under _TMR0_ISR in BANK52

    None.

Critical Paths under _Default_ISR in BANK52

    None.

Critical Paths under _UART2_tx_vect_isr in BANK52

    None.

Critical Paths under _UART2_rx_vect_isr in BANK52

    None.

Critical Paths under _UART1_tx_vect_isr in BANK52

    None.

Critical Paths under _UART1_rx_vect_isr in BANK52

    None.

Critical Paths under _main in BANK53

    None.

Critical Paths under _TMR0_ISR in BANK53

    None.

Critical Paths under _Default_ISR in BANK53

    None.

Critical Paths under _UART2_tx_vect_isr in BANK53

    None.

Critical Paths under _UART2_rx_vect_isr in BANK53

    None.

Critical Paths under _UART1_tx_vect_isr in BANK53

    None.

Critical Paths under _UART1_rx_vect_isr in BANK53

    None.

Critical Paths under _main in BANK54

    None.

Critical Paths under _TMR0_ISR in BANK54

    None.

Critical Paths under _Default_ISR in BANK54

    None.

Critical Paths under _UART2_tx_vect_isr in BANK54

    None.

Critical Paths under _UART2_rx_vect_isr in BANK54

    None.

Critical Paths under _UART1_tx_vect_isr in BANK54

    None.

Critical Paths under _UART1_rx_vect_isr in BANK54

    None.

Call Graph Tables:

 ---------------------------------------------------------------------------------
 (Depth) Function   	        Calls       Base Space   Used Autos Params    Refs
 ---------------------------------------------------------------------------------
 (0) _main                                                 0     0      0    1478
                  _SYSTEM_Initialize
           _TMR0_SetInterruptHandler
                    _TMR0_StartTimer
 ---------------------------------------------------------------------------------
 (1) _TMR0_StartTimer                                      0     0      0       0
 ---------------------------------------------------------------------------------
 (1) _SYSTEM_Initialize                                    0     0      0    1304
                    _CAN1_Initialize
               _INTERRUPT_Initialize
              _OSCILLATOR_Initialize
             _PIN_MANAGER_Initialize
                     _PMD_Initialize
                    _TMR0_Initialize
                   _UART1_Initialize
                   _UART2_Initialize
 ---------------------------------------------------------------------------------
 (2) _UART2_Initialize                                     0     0      0     490
              _UART2_SetErrorHandler
       _UART2_SetFramingErrorHandler
       _UART2_SetOverrunErrorHandler
        _UART2_SetRxInterruptHandler
        _UART2_SetTxInterruptHandler
 ---------------------------------------------------------------------------------
 (3) _UART2_SetTxInterruptHandler                          3     0      3      98
                                             11 COMRAM     3     0      3
 ---------------------------------------------------------------------------------
 (3) _UART2_SetRxInterruptHandler                          3     0      3      98
                                             11 COMRAM     3     0      3
 ---------------------------------------------------------------------------------
 (3) _UART2_SetOverrunErrorHandler                         3     0      3      98
                                             11 COMRAM     3     0      3
 ---------------------------------------------------------------------------------
 (3) _UART2_SetFramingErrorHandler                         3     0      3      98
                                             11 COMRAM     3     0      3
 ---------------------------------------------------------------------------------
 (3) _UART2_SetErrorHandler                                3     0      3      98
                                             11 COMRAM     3     0      3
 ---------------------------------------------------------------------------------
 (2) _UART1_Initialize                                     0     0      0     490
              _UART1_SetErrorHandler
       _UART1_SetFramingErrorHandler
       _UART1_SetOverrunErrorHandler
        _UART1_SetRxInterruptHandler
        _UART1_SetTxInterruptHandler
 ---------------------------------------------------------------------------------
 (3) _UART1_SetTxInterruptHandler                          3     0      3      98
                                             11 COMRAM     3     0      3
 ---------------------------------------------------------------------------------
 (3) _UART1_SetRxInterruptHandler                          3     0      3      98
                                             11 COMRAM     3     0      3
 ---------------------------------------------------------------------------------
 (3) _UART1_SetOverrunErrorHandler                         3     0      3      98
                                             11 COMRAM     3     0      3
 ---------------------------------------------------------------------------------
 (3) _UART1_SetFramingErrorHandler                         3     0      3      98
                                             11 COMRAM     3     0      3
 ---------------------------------------------------------------------------------
 (3) _UART1_SetErrorHandler                                3     0      3      98
                                             11 COMRAM     3     0      3
 ---------------------------------------------------------------------------------
 (2) _TMR0_Initialize                                      0     0      0     174
           _TMR0_SetInterruptHandler
 ---------------------------------------------------------------------------------
 (1) _TMR0_SetInterruptHandler                             3     0      3     174
                                             11 COMRAM     3     0      3
 ---------------------------------------------------------------------------------
 (2) _PMD_Initialize                                       0     0      0       0
 ---------------------------------------------------------------------------------
 (2) _PIN_MANAGER_Initialize                               0     0      0       0
 ---------------------------------------------------------------------------------
 (2) _OSCILLATOR_Initialize                                0     0      0       0
 ---------------------------------------------------------------------------------
 (2) _INTERRUPT_Initialize                                 1     1      0      15
                                             11 COMRAM     1     1      0
 ---------------------------------------------------------------------------------
 (2) _CAN1_Initialize                                      0     0      0     135
          _CAN1_BitRateConfiguration
              _CAN1_OperationModeSet
         _CAN1_RX_FIFO_Configuration
_CAN1_RX_FIFO_FilterMaskConfiguratio
             _CAN1_RX_FIFO_ResetInfo
         _CAN1_TX_FIFO_Configuration
 ---------------------------------------------------------------------------------
 (3) _CAN1_TX_FIFO_Configuration                           0     0      0       0
 ---------------------------------------------------------------------------------
 (3) _CAN1_RX_FIFO_ResetInfo                               1     1      0      45
                                             11 COMRAM     1     1      0
 ---------------------------------------------------------------------------------
 (3) _CAN1_RX_FIFO_FilterMaskConfiguration                 0     0      0       0
 ---------------------------------------------------------------------------------
 (3) _CAN1_RX_FIFO_Configuration                           0     0      0       0
 ---------------------------------------------------------------------------------
 (3) _CAN1_OperationModeSet                                3     3      0      90
                                             11 COMRAM     3     3      0
              _CAN1_OperationModeGet
 ---------------------------------------------------------------------------------
 (4) _CAN1_OperationModeGet                                0     0      0       0
 ---------------------------------------------------------------------------------
 (3) _CAN1_BitRateConfiguration                            0     0      0       0
 ---------------------------------------------------------------------------------
 Estimated maximum stack depth 4
 ---------------------------------------------------------------------------------
 (Depth) Function   	        Calls       Base Space   Used Autos Params    Refs
 ---------------------------------------------------------------------------------
 (5) _TMR0_ISR                                             2     2      0       0
                                              1 COMRAM     2     2      0
                   Absolute function *
       _TMR0_DefaultInterruptHandler *
                           _tmr0_isr *
 ---------------------------------------------------------------------------------
 (6) _tmr0_isr                                             1     1      0       0
                                              0 COMRAM     1     1      0
 ---------------------------------------------------------------------------------
 (6) _TMR0_DefaultInterruptHandler                         0     0      0       0
 ---------------------------------------------------------------------------------
 (7) Absolute function(Fake)                               0     0      0       0
 ---------------------------------------------------------------------------------
 Estimated maximum stack depth 7
 ---------------------------------------------------------------------------------
 (Depth) Function   	        Calls       Base Space   Used Autos Params    Refs
 ---------------------------------------------------------------------------------
 (5) _Default_ISR                                          0     0      0       0
 ---------------------------------------------------------------------------------
 Estimated maximum stack depth 5
 ---------------------------------------------------------------------------------
 (Depth) Function   	        Calls       Base Space   Used Autos Params    Refs
 ---------------------------------------------------------------------------------
 (5) _UART2_tx_vect_isr                                    2     2      0       0
                                              3 COMRAM     2     2      0
                   Absolute function *
                 _UART2_Transmit_ISR *
 ---------------------------------------------------------------------------------
 (6) _UART2_Transmit_ISR                                   0     0      0       0
 ---------------------------------------------------------------------------------
 (7) Absolute function(Fake)                               0     0      0       0
 ---------------------------------------------------------------------------------
 Estimated maximum stack depth 7
 ---------------------------------------------------------------------------------
 (Depth) Function   	        Calls       Base Space   Used Autos Params    Refs
 ---------------------------------------------------------------------------------
 (5) _UART2_rx_vect_isr                                    2     2      0       0
                                              5 COMRAM     2     2      0
                   Absolute function *
                  _UART2_Receive_ISR *
 ---------------------------------------------------------------------------------
 (6) _UART2_Receive_ISR                                    0     0      0       0
                   Absolute function *
          _UART2_DefaultErrorHandler *
   _UART2_DefaultFramingErrorHandler *
   _UART2_DefaultOverrunErrorHandler *
                _UART2_RxDataHandler
 ---------------------------------------------------------------------------------
 (7) _UART2_DefaultOverrunErrorHandler                     0     0      0       0
 ---------------------------------------------------------------------------------
 (7) _UART2_DefaultFramingErrorHandler                     0     0      0       0
 ---------------------------------------------------------------------------------
 (7) _UART2_DefaultErrorHandler                            0     0      0       0
                _UART2_RxDataHandler
 ---------------------------------------------------------------------------------
 (7) _UART2_RxDataHandler                                  0     0      0       0
 ---------------------------------------------------------------------------------
 (7) Absolute function(Fake)                               0     0      0       0
 ---------------------------------------------------------------------------------
 Estimated maximum stack depth 7
 ---------------------------------------------------------------------------------
 (Depth) Function   	        Calls       Base Space   Used Autos Params    Refs
 ---------------------------------------------------------------------------------
 (5) _UART1_tx_vect_isr                                    2     2      0       0
                                              7 COMRAM     2     2      0
                   Absolute function *
                 _UART1_Transmit_ISR *
 ---------------------------------------------------------------------------------
 (6) _UART1_Transmit_ISR                                   0     0      0       0
 ---------------------------------------------------------------------------------
 (7) Absolute function(Fake)                               0     0      0       0
 ---------------------------------------------------------------------------------
 Estimated maximum stack depth 7
 ---------------------------------------------------------------------------------
 (Depth) Function   	        Calls       Base Space   Used Autos Params    Refs
 ---------------------------------------------------------------------------------
 (5) _UART1_rx_vect_isr                                    2     2      0       0
                                              9 COMRAM     2     2      0
                   Absolute function *
                  _UART1_Receive_ISR *
 ---------------------------------------------------------------------------------
 (6) _UART1_Receive_ISR                                    0     0      0       0
                   Absolute function *
          _UART1_DefaultErrorHandler *
   _UART1_DefaultFramingErrorHandler *
   _UART1_DefaultOverrunErrorHandler *
                _UART1_RxDataHandler
 ---------------------------------------------------------------------------------
 (7) _UART1_DefaultOverrunErrorHandler                     0     0      0       0
 ---------------------------------------------------------------------------------
 (7) _UART1_DefaultFramingErrorHandler                     0     0      0       0
 ---------------------------------------------------------------------------------
 (7) _UART1_DefaultErrorHandler                            0     0      0       0
                _UART1_RxDataHandler
 ---------------------------------------------------------------------------------
 (7) _UART1_RxDataHandler                                  0     0      0       0
 ---------------------------------------------------------------------------------
 (7) Absolute function(Fake)                               0     0      0       0
 ---------------------------------------------------------------------------------
 Estimated maximum stack depth 7
 ---------------------------------------------------------------------------------

 Call Graph Graphs:

 _main (ROOT)
   _SYSTEM_Initialize
     _CAN1_Initialize
       _CAN1_BitRateConfiguration
       _CAN1_OperationModeSet
         _CAN1_OperationModeGet
       _CAN1_RX_FIFO_Configuration
       _CAN1_RX_FIFO_FilterMaskConfiguration
       _CAN1_RX_FIFO_ResetInfo
       _CAN1_TX_FIFO_Configuration
     _INTERRUPT_Initialize
     _OSCILLATOR_Initialize
     _PIN_MANAGER_Initialize
     _PMD_Initialize
     _TMR0_Initialize
       _TMR0_SetInterruptHandler
     _UART1_Initialize
       _UART1_SetErrorHandler
       _UART1_SetFramingErrorHandler
       _UART1_SetOverrunErrorHandler
       _UART1_SetRxInterruptHandler
       _UART1_SetTxInterruptHandler
     _UART2_Initialize
       _UART2_SetErrorHandler
       _UART2_SetFramingErrorHandler
       _UART2_SetOverrunErrorHandler
       _UART2_SetRxInterruptHandler
       _UART2_SetTxInterruptHandler
   _TMR0_SetInterruptHandler
   _TMR0_StartTimer

 _TMR0_ISR (ROOT)
   Absolute function(Fake) *
   _TMR0_DefaultInterruptHandler *
   _tmr0_isr *

 _Default_ISR (ROOT)

 _UART2_tx_vect_isr (ROOT)
   Absolute function(Fake) *
   _UART2_Transmit_ISR *

 _UART2_rx_vect_isr (ROOT)
   Absolute function(Fake) *
   _UART2_Receive_ISR *
     Absolute function(Fake) *
     _UART2_DefaultErrorHandler *
       _UART2_RxDataHandler
     _UART2_DefaultFramingErrorHandler *
     _UART2_DefaultOverrunErrorHandler *
     _UART2_RxDataHandler *

 _UART1_tx_vect_isr (ROOT)
   Absolute function(Fake) *
   _UART1_Transmit_ISR *

 _UART1_rx_vect_isr (ROOT)
   Absolute function(Fake) *
   _UART1_Receive_ISR *
     Absolute function(Fake) *
     _UART1_DefaultErrorHandler *
       _UART1_RxDataHandler
     _UART1_DefaultFramingErrorHandler *
     _UART1_DefaultOverrunErrorHandler *
     _UART1_RxDataHandler *

 Address spaces:
Name               Size   Autos  Total    Cost      Usage
BIGRAM            31FF      0       0     105        0.0%
BITBIGSFR_1        900      0       0     104        0.0%
EEDATA             400      0       0       0        0.0%
BITBANK54          100      0       0     102        0.0%
BANK54             100      0       0     103        0.0%
BITBANK53          100      0       0     100        0.0%
BANK53             100      0       0     101        0.0%
BITBANK52          100      0       0      98        0.0%
BANK52             100      0       0      99        0.0%
BITBANK51          100      0       0      96        0.0%
BANK51             100      0       0      97        0.0%
BITBANK50          100      0       0      94        0.0%
BANK50             100      0       0      95        0.0%
BITBANK49          100      0       0      92        0.0%
BANK49             100      0       0      93        0.0%
BITBANK48          100      0       0      90        0.0%
BANK48             100      0       0      91        0.0%
BITBANK47          100      0       0      88        0.0%
BANK47             100      0       0      89        0.0%
BITBANK46          100      0       0      86        0.0%
BANK46             100      0       0      87        0.0%
BITBANK45          100      0       0      84        0.0%
BANK45             100      0       0      85        0.0%
BITBANK44          100      0       0      82        0.0%
BANK44             100      0       0      83        0.0%
BITBANK43          100      0       0      80        0.0%
BANK43             100      0       0      81        0.0%
BITBANK42          100      0       0      78        0.0%
BANK42             100      0       0      79        0.0%
BITBANK41          100      0       0      76        0.0%
BANK41             100      0       0      77        0.0%
BITBANK40          100      0       0      74        0.0%
BANK40             100      0       0      75        0.0%
BITBANK39          100      0       0      72        0.0%
BANK39             100      0       0      73        0.0%
BITBANK38          100      0       0      70        0.0%
BANK38             100      0       0      71        0.0%
BITBANK37          100      0       0      68        0.0%
BANK37             100      0       0      69        0.0%
BITBANK36          100      0       0      66        0.0%
BANK36             100      0       0      67        0.0%
BITBANK35          100      0       0      64        0.0%
BANK35             100      0       0      65        0.0%
BITBANK34          100      0       0      62        0.0%
BANK34             100      0       0      63        0.0%
BITBANK33          100      0       0      60        0.0%
BANK33             100      0       0      61        0.0%
BITBANK32          100      0       0      58        0.0%
BANK32             100      0       0      59        0.0%
BITBANK31          100      0       0      56        0.0%
BANK31             100      0       0      57        0.0%
BITBANK30          100      0       0      54        0.0%
BANK30             100      0       0      55        0.0%
BITBANK29          100      0       0      52        0.0%
BANK29             100      0       0      53        0.0%
BITBANK28          100      0       0      50        0.0%
BANK28             100      0       0      51        0.0%
BITBANK27          100      0       0      48        0.0%
BANK27             100      0       0      49        0.0%
BITBANK26          100      0       0      46        0.0%
BANK26             100      0       0      47        0.0%
BITBANK25          100      0       0      44        0.0%
BANK25             100      0       0      45        0.0%
BITBANK24          100      0       0      42        0.0%
BANK24             100      0       0      43        0.0%
BITBANK23          100      0       0      40        0.0%
BANK23             100      0       0      41        0.0%
BITBANK22          100      0       0      38        0.0%
BANK22             100      0       0      39        0.0%
BITBANK21          100      0       0      36        0.0%
BANK21             100      0       0      37        0.0%
BITBANK20          100      0       0      34        0.0%
BANK20             100      0       0      35        0.0%
BITBANK19          100      0       0      32        0.0%
BANK19             100      0       0      33        0.0%
BITBANK18          100      0       0      30        0.0%
BANK18             100      0       0      31        0.0%
BITBANK17          100      0       0      28        0.0%
BANK17             100      0       0      29        0.0%
BITBANK16          100      0       0      26        0.0%
BANK16             100      0       0      27        0.0%
BITBANK15          100      0       0      24        0.0%
BANK15             100      0       0      25        0.0%
BITBANK14          100      0       0      22        0.0%
BANK14             100      0       0      23        0.0%
BITBANK13          100      0       0      20        0.0%
BANK13             100      0       0      21        0.0%
BITBANK12          100      0       0      18        0.0%
BANK12             100      0       0      19        0.0%
BITBANK11          100      0       0      16        0.0%
BANK11             100      0       0      17        0.0%
BITBANK10          100      0       0      14        0.0%
BANK10             100      0       0      15        0.0%
BITBANK9           100      0       0      12        0.0%
BANK9              100      0       0      13        0.0%
BITBANK8           100      0       0      10        0.0%
BANK8              100      0       0      11        0.0%
BITBANK7           100      0       0       8        0.0%
BANK7              100      0      40       9       25.0%
BITBANK6           100      0       0       6        0.0%
BANK6              100      0     100       7      100.0%
BITBIGSFRhhhlll     A1      0       0     133        0.0%
BITBANK5            A0      0       0       4        0.0%
BANK5               A0      0      80       5       80.0%
BITBIGSFRhhhlll     95      0       0     119        0.0%
BITBIGSFRll         60      0       0     145        0.0%
BITCOMRAM           5F      0       0       0        0.0%
COMRAM              5F      E      3F       1       66.3%
BITBIGSFRhhhlll     51      0       0     122        0.0%
BITBIGSFRhhhlll     4C      0       0     141        0.0%
BITBIGSFRhhhlll     49      0       0     121        0.0%
BITBIGSFRlh         44      0       0     144        0.0%
BITBIGSFRhhhllh     41      0       0     112        0.0%
BITBIGSFRhhhlll     34      0       0     129        0.0%
BITBIGSFRhhhllh     34      0       0     114        0.0%
BITBIGSFRhhhlll     2C      0       0     127        0.0%
BITBIGSFRhhhhhh     29      0       0     106        0.0%
BITBIGSFRhhhlll     1D      0       0     130        0.0%
BITBIGSFRhhhlll     16      0       0     137        0.0%
BITBIGSFRhhhlll     15      0       0     136        0.0%
BITBIGSFRhhhlll      E      0       0     139        0.0%
BITBIGSFRhhhllh      C      0       0     109        0.0%
BITBIGSFRhhhlll      B      0       0     135        0.0%
BITBIGSFRhhhhhl      B      0       0     107        0.0%
BITBIGSFRhhhllh      A      0       0     110        0.0%
BITBIGSFRhhhlll      9      0       0     132        0.0%
BITBIGSFRhhhlll      8      0       0     134        0.0%
BITBIGSFRhhhlll      7      0       0     131        0.0%
BITBIGSFRhhhlll      3      0       0     120        0.0%
BITBIGSFRhhhllh      3      0       0     113        0.0%
BITBIGSFRhhhllh      3      0       0     111        0.0%
BITBIGSFRhhhlll      3      0       0     118        0.0%
BITBIGSFRhhhlll      3      0       0     117        0.0%
BITBIGSFRhhhlll      3      0       0     116        0.0%
BITBIGSFRhhhllh      3      0       0     115        0.0%
BITBIGSFRhhhhll      3      0       0     108        0.0%
BITBIGSFRhhhlll      1      0       0     126        0.0%
BITBIGSFRhhhlll      1      0       0     125        0.0%
BITBIGSFRhhhlll      1      0       0     124        0.0%
BITBIGSFRhhhlll      1      0       0     123        0.0%
BITBIGSFRhhhlll      1      0       0     138        0.0%
BITBIGSFRhhhlll      1      0       0     140        0.0%
BITBIGSFRhhhlll      1      0       0     128        0.0%
BITBIGSFRhhlh        1      0       0     142        0.0%
BITBIGSFRhl          1      0       0     143        0.0%
BIGSFR_1             0      0       0     200        0.0%
BIGSFR               0      0       0     200        0.0%
BITSFR_14            0      0       0     200        0.0%
SFR_14               0      0       0     200        0.0%
BITSFR_13            0      0       0     200        0.0%
SFR_13               0      0       0     200        0.0%
BITSFR_12            0      0       0     200        0.0%
SFR_12               0      0       0     200        0.0%
BITSFR_11            0      0       0     200        0.0%
SFR_11               0      0       0     200        0.0%
BITSFR_10            0      0       0     200        0.0%
SFR_10               0      0       0     200        0.0%
BITSFR_9             0      0       0     200        0.0%
SFR_9                0      0       0     200        0.0%
BITSFR_8             0      0       0     200        0.0%
SFR_8                0      0       0     200        0.0%
BITSFR_7             0      0       0     200        0.0%
SFR_7                0      0       0     200        0.0%
BITSFR_6             0      0       0     200        0.0%
SFR_6                0      0       0     200        0.0%
BITSFR_5             0      0       0     200        0.0%
SFR_5                0      0       0     200        0.0%
BITSFR_4             0      0       0     200        0.0%
SFR_4                0      0       0     200        0.0%
BITSFR_3             0      0       0     200        0.0%
SFR_3                0      0       0     200        0.0%
BITSFR_2             0      0       0     200        0.0%
SFR_2                0      0       0     200        0.0%
BITSFR_1             0      0       0     200        0.0%
SFR_1                0      0       0     200        0.0%
BITSFR               0      0       0     200        0.0%
SFR                  0      0       0     200        0.0%
STACK                0      0       0       2        0.0%
NULL                 0      0       0       0        0.0%
ABS                  0      0     1FF     146        0.0%
DATA                 0      0     1FF       3        0.0%
CODE                 0      0       0       0        0.0%


Microchip Technology PIC18 Macro Assembler V2.36 build 20220127204148 
Symbol Table                                                                                   Tue Feb  7 12:19:09 2023

                                          l61 3F7E                                            l55 3FC4  
                                          l58 3FDC                                            u10 3EAC  
                                          u11 3EA8                                            u20 3AB6  
                                          u21 3AB2                                            u30 3AC6  
                                          u31 3AC2                                            u40 3AD8  
                                          u41 3AD4                                            u50 3AF6  
                                          u51 3AF2                                            u60 3B14  
                                          u61 3B10                                            u95 3DEE  
                                          u96 3DF0                                   fp__tmr0_isr 0000  
                       fp__UART2_Transmit_ISR 0000                                           l232 40BE  
                                         l226 3EAC                                           l242 3C48  
                                         l146 3A96                                           l235 3FF0  
                                         l252 3B1C                                           l253 3B1E  
                                         l229 4004                                           l238 3ED8  
                                         l256 40A8                                           l600 404A  
                                         l249 3AE8                                           l427 3DFC  
                                         l603 4020                                           l372 40AE  
                                         l525 394C                                           l606 4012  
                                         l393 409E                                           l369 3F02  
                                         l812 3F9C                                           l813 3F9C  
                                         l594 403C                                           l771 4074  
                                         l780 4058                                           l597 402E  
                                         l774 4090                                           l768 4082  
                                         l777 4066                                           l699 39FE  
                                         _GIE 0026B7                                           u100 3C10  
                                         u101 3C0C                                           prod 0004F3  
                                         tosl 0004FD                                           wreg 0004E8  
                          _UART1_Transmit_ISR 3E40                                          l1501 3E82  
                                        l2221 4006                                          l2301 38F6  
                                        l1511 3FF2                                          l2223 4030  
                                        l2311 394A                                          l2303 38FA  
                                        l1521 3AA4                                          l1505 3E86  
                                        l1513 3FDE                                          l1601 3F58  
                                        l2217 4092                                          l2241 404C  
                                        l2321 3978                                          l2313 394E  
                                        l2225 4022                                          l2305 38FE  
                                        l1515 3EAE                                          l1531 3AFE  
                                        l1523 3AB6                                          l1507 3E9A  
                                        l1611 3A68                                          l1603 3A00  
                                        l2243 4076                                          l2331 398C  
                                        l2323 397C                                          l2315 3950  
                                        l2227 403E                                          l2219 4014  
                                        l2307 390E                                          l1533 3B18  
                                        l1525 3AC6                                          l1517 3A9A  
                                        l1509 3E9C                                          l1621 3A76  
                                        l1613 3A6A                                          l1605 3A3A  
                                        l2261 3EE8                                          l2245 4068  
                                        l2341 39A0                                          l2333 3990  
                                        l2325 3980                                          l2317 3960  
                                        l2309 391E                                          l1527 3AD8  
                                        l1519 3A9E                                          l1623 3FC6  
                                        l1615 3A70                                          l1607 3A64  
                                        l2263 3EEA                                          l2247 4084  
                                        l2239 405A                                          l2351 39C0  
                                        l2343 39A4                                          l2335 3994  
                                        l2327 3984                                          l2319 3972  
                                        l2271 389E                                          l1529 3AF6  
                                        l1617 3A72                                          l1609 3A66  
                                        l2265 3EEC                                          l2353 39D0  
                                        l2345 39A8                                          l2337 3998  
                                        l2329 3988                                          l2281 38CE  
                                        l2273 38AE                                          l2361 3FA4  
                                        l1731 3C32                                          l1723 3BF6  
                                        l1619 3A74                                          l2267 3EFC  
                                        l2259 3EDA                                          l2355 39FC  
                                        l2347 39AC                                          l2339 399C  
                                        l2291 38E2                                          l2283 38D2  
                                        l2275 38C0                                          l2363 3FB4  
                                        l1733 3C36                                          l1725 3BFA  
                                        l1581 3DBA                                          l2349 39B0  
                                        l2293 38E6                                          l2285 38D6  
                                        l2277 38C6                                          l2269 389C  
                                        l2365 3FB8                                          l1735 3C3E  
                                        l1727 3C10                                          l1591 3DF0  
                                        l1583 3DC2                                          l2295 38EA  
                                        l2287 38DA                                          l2279 38CA  
                                        l2367 3FBC                                          l1497 40A0  
                                        l1737 3C42                                          l1729 3C2E  
                                        l1593 3DF4                                          l1585 3DCE  
                                        l2297 38EE                                          l2289 38DE  
                                        l2369 3FC0                                          l1595 3DF6  
                                        l1587 3DE4                                          l1579 3DB8  
                                        l2299 38F2                                          l1597 3DF8  
                                        l1589 3DE6                                          l1599 3DFA  
                                        l2671 3F84                                          l2673 3F94  
                                        l2675 3F96                                          l2677 3F98  
                                        l2669 3F80                                          l1897 40AA  
                                        _FIFO 3711                                          _LATA 0004BE  
                                        _LATB 0004BF                                          _LATC 0004C0  
                                        _LATD 0004C1                                          _LATE 0004C2  
                                        _PMD0 000060                                          _PMD1 000061  
                                        _PMD2 000062                                          _PMD3 000063  
                                        _PMD4 000064                                          _PMD5 000065  
                                        _PMD6 000066                                          _PMD7 000067  
                                        _PMD8 000068                                          _WPUA 000401  
                                        _WPUB 000409                                          _WPUC 000411  
                                        _WPUD 000419                                          _WPUE 000421  
                         ?_UART1_Transmit_ISR 0524                                          _main 3F80  
                             _TMR0_StartTimer 40AA                                          fsr1h 0004E2  
                                        indf2 0004DF                                          fsr1l 0004E1  
                                        fsr2l 0004D9                                          prodl 0004F3  
                                        start 010A                 ??_UART1_SetTxInterruptHandler 0532  
               ??_UART2_SetRxInterruptHandler 0532                             _UART1_rx_vect_isr 3D70  
                                ___param_bank 000000                            ?_UART1_rx_vect_isr 0524  
                     __end_of_TMR0_Initialize 3F04                ??_TMR0_DefaultInterruptHandler 0524  
                        ??_UART1_Transmit_ISR 052B                 __end_of_OSCILLATOR_Initialize 3FDE  
                                       ?_main 0524                                         _U1P1H 0002A6  
                                       _U1P2H 0002A8                                         _U1P1L 0002A5  
                                       _U1P3H 0002AA                                         _U1P2L 0002A7  
                                       _U2P1H 0002B9                                         _U1P3L 0002A9  
                                       _U2P2H 0002BB                                         _U2P3H 0002BD  
                                       _U2P1L 0002B8                                         _U2P2L 0002BA  
                                       _U2P3L 0002BC                                         _U1UIR 0002B1  
                                       _U1RXB 0002A1                                         _U2UIR 0002C4  
                                       _U2RXB 0002B4                                         _U1TXB 0002A3  
                                       _U2TXB 0002B6                                         i2l432 40C4  
                                       i2l390 3C88                                         i2l801 3B20  
                                       i2l571 3E3E                                         i2l803 3B42  
                                       i2l396 40C0                                         i2l733 3D62  
                                       i2l565 3D1A                                         i2l805 3B66  
                                       i2l742 3E7E                                         i2l582 3F2C  
                                       i2l591 40B4                                         i2l559 3CD2  
                                       i2l807 3B8C                                         i2l752 389A  
                                       i2l568 3E3C                           ??_UART1_rx_vect_isr 052D  
                                       i2l745 3E80                                         i2l585 40C8  
                                       i2l762 40CA                                         i2l578 37D6  
                                       i2l739 3DAA                                         i2l756 3F56  
                                       i2l588 40C6                                         i2l765 40BA  
                                       i2l759 40CC                                         _OSCEN 0000B3  
                                       _TMR0H 000319                                         _TMR0L 000318  
                                       _TRISA 0004C6                                         _TRISB 0004C7  
                                       _TRISC 0004C8                                         _TRISD 0004C9  
                                       _TRISE 0004CA                                   _Default_ISR 40C4  
                   ?_TMR0_SetInterruptHandler 052F                              __end_of_TMR0_ISR 3C96  
                           _UART1_tx_vect_isr 3D28                            ?_UART1_tx_vect_isr 0524  
                                       pclath 0004FA                                         pclatu 0004FB  
                                       tablat 0004F5                                         status 0004D8  
         __end_of_UART1_SetRxInterruptHandler 4068                   _UART1_SetRxInterruptHandler 405A  
         fp__UART1_DefaultFramingErrorHandler 0000      __end_of_UART1_DefaultFramingErrorHandler 40CE  
          ??_UART1_DefaultFramingErrorHandler 052D             ?_UART1_DefaultFramingErrorHandler 0524  
            _UART1_DefaultFramingErrorHandler 40CC                           ??_UART1_tx_vect_isr 052B  
                   __end_of_UART1_rx_vect_isr 3DB8                  ??_CAN1_TX_FIFO_Configuration 052F  
                                __end_of_FIFO 3713                ??_UART2_SetOverrunErrorHandler 0532  
                             __initialization 3B8E                             __end_of_DLC_BYTES 3711  
                           _UART2_rx_vect_isr 3CE0                                  __end_of_main 3FA4  
                 CAN1_RX_FIFO_ResetInfo@index 052F                   ??_UART1_DefaultErrorHandler 052D  
                          ?_UART2_rx_vect_isr 0524                                        ??_main 0532  
                               __activetblptr 000003                           ??_UART2_rx_vect_isr 0529  
                   __end_of_UART1_tx_vect_isr 3D70                   __end_of_UART2_RxDataHandler 3F2E  
                            _UART1_Initialize 394E                                        _C1CONH 000101  
                                      _C1CONL 000100                             _UART2_tx_vect_isr 3C98  
                                      _C1CONU 000102                                        _C1TDCH 00010D  
                          _UART2_Transmit_ISR 3DFE                                        _C1TDCU 00010E  
                     __end_of_TMR0_StartTimer 40B0                                        _ANSELA 000400  
                                      _ANSELB 000408                                        _ANSELC 000410  
                                      _ANSELD 000418                                        _ANSELE 000420  
                          ?_UART2_tx_vect_isr 0524                                        _T0CON0 00031A  
                                      _T0CON1 00031B                                        _U1CON0 0002AB  
                                      _U1CON1 0002AC                                        _U1CON2 0002AD  
                                      _U1BRGH 0002AF                                        _U1FIFO 0002B0  
                                      _U2CON0 0002BE                                        _U2CON1 0002BF  
                                      _U2CON2 0002C0                                        _U1BRGL 0002AE  
                                      _U2BRGH 0002C2                                        _U2FIFO 0002C3  
                                      _U2BRGL 0002C1                                        _RB4PPS 00020D  
                                      _ODCONA 000402                                        _ODCONB 00040A  
                                      _RC6PPS 000217                                        _ODCONC 000412  
                                      _ODCOND 00041A                                        _ODCONE 000422  
                                      _RD6PPS 00021F                                        i2l2231 3F14  
                                      i2l2233 3F16                                        i2l2251 3F3E  
                                      i2l2235 3F26                                        i2l2091 3C5A  
                                      i2l2253 3F40                                        i2l2501 3822  
                                      i2l2237 3F2A                                        i2l2229 3F04  
                                      i2l2093 3C6E                                        i2l2255 3F50  
                                      i2l2511 3896                                        i2l2503 3832  
                                      i2l2257 3F54                                        i2l2249 3F2E  
                                      i2l2505 3842                                        i2l2089 3C58  
                                      i2l2507 385C                                        i2l2451 3E0E  
                                      i2l2509 3878                                        i2l2357 40B0  
                                      i2l2461 3714                                        i2l2621 3D00  
                                      i2l2453 3E20                                        i2l2359 40B6  
                                      i2l2471 376E                                        i2l2463 3724  
                                      i2l2455 3E22                                        i2l2615 3CA4  
                                      i2l2481 3E40                                        i2l2473 377E  
                                      i2l2465 3734                                        i2l2457 3E32  
                                      i2l2449 3DFE                                        i2l2617 3CB8  
                                      i2l2491 3E78                                        i2l2483 3E50  
                                      i2l2475 3798                                        i2l2467 3744  
                                      i2l2619 3CEC                                        i2l2459 3E36  
                                      i2l2493 37D8                                        i2l2485 3E62  
                                      i2l2661 3D34                                        i2l2477 37B4  
                                      i2l2469 375E                                        i2l2495 37E8  
                                      i2l2487 3E64                                        i2l2663 3D48  
                                      i2l2479 37D2                                        i2l2497 37F8  
                                      i2l2665 3D7C                                        i2l2489 3E74  
                                      i2l2499 3808                                        i2l2667 3D90  
                                      i2l1963 3B20                                        _INLVLA 000404  
                                      _INLVLB 00040C                                        _INLVLC 000414  
                                      _INLVLD 00041C                                        _INLVLE 000424  
                     ??_CAN1_OperationModeGet 052F                                        _OSCFRQ 0000B1  
                     ??_CAN1_OperationModeSet 052F                           ?_UART2_Transmit_ISR 0524  
                       _UART1_SetErrorHandler 4084                           ??_UART2_tx_vect_isr 0527  
                   __end_of_UART2_rx_vect_isr 3D28                   ??_CAN1_BitRateConfiguration 052F  
                            _UART2_Initialize 389C                     _UART2_OverrunErrorHandler 050D  
                         _uart2RxStatusBuffer 05A0                    ?_UART2_DefaultErrorHandler 0524  
                            ?_TMR0_Initialize 0524                                        clear_0 3BB0  
                                      clear_1 3BBE                                        clear_2 3BD0  
                                      clear_3 3BDC                      ??_CAN1_RX_FIFO_ResetInfo 052F  
                                      isa$std 000001                          ??_UART2_Transmit_ISR 0527  
                            __end_of_tmr0_isr 3B8E                                _PMD_Initialize 3F58  
                                __pdataCOMRAM 053E                     __end_of_UART2_tx_vect_isr 3CE0  
                                __mediumconst 0000                                        tblptrh 0004F7  
                                      tblptrl 0004F6                                        tblptru 0004F8  
 UART1_SetTxInterruptHandler@InterruptHandler 052F   UART1_SetRxInterruptHandler@InterruptHandler 052F  
 UART2_SetTxInterruptHandler@InterruptHandler 052F   UART2_SetRxInterruptHandler@InterruptHandler 052F  
    TMR0_SetInterruptHandler@InterruptHandler 052F          __end_of_UART1_SetOverrunErrorHandler 4076  
                _UART1_SetOverrunErrorHandler 4068                     _UART1_DefaultErrorHandler 40B6  
                           _SYSTEM_Initialize 3FA4                                    __accesstop 0560  
                     __end_of__initialization 3BF0                             ??_CAN1_Initialize 0532  
                          ?_SYSTEM_Initialize 0524                                 ___rparam_used 000001  
                              __pcstackCOMRAM 0524                         _UART2_SetErrorHandler 403E  
                         ??_SYSTEM_Initialize 0532                                     ?_TMR0_ISR 0524  
                              ivt0x8_undefint 0108             __end_of_UART2_DefaultErrorHandler 40B6  
                      __end_of_PMD_Initialize 3F80                     _CAN1_BitRateConfiguration 3EAE  
                   _UART1_FramingErrorHandler 0507                      _UART2_RxInterruptHandler 051F  
                            ?_TMR0_StartTimer 0524                     __end_of_SYSTEM_Initialize 3FC6  
                                  __pbssBANK5 0560                                    __pbssBANK6 0600  
                                  __pbssBANK7 0700                 ?_UART1_SetOverrunErrorHandler 052F  
                      ?_UART1_SetErrorHandler 052F                                    __pnvCOMRAM 0501  
          __end_of_CAN1_TX_FIFO_Configuration 3FF2                    _CAN1_TX_FIFO_Configuration 3FDE  
                ?_UART2_SetTxInterruptHandler 052F                                       IVTBASEH 00045E  
                                     IVTBASEL 00045D                                       IVTBASEU 00045F  
            __end_of_TMR0_SetInterruptHandler 40A0                                     _C1DBTCFGH 000109  
                                   _C1DBTCFGL 000108                                     _C1DBTCFGT 00010B  
                                   _C1DBTCFGU 00010A                                    ??_TMR0_ISR 0525  
        __end_of_UART2_SetFramingErrorHandler 403E                  _UART2_SetFramingErrorHandler 4030  
                                   _C1NBTCFGH 000105                                     _C1NBTCFGL 000104  
                                   _C1NBTCFGT 000107                                     _C1NBTCFGU 000106  
                             ?_PMD_Initialize 0524                             _UART1_Receive_ISR 37D8  
                                     _U1ERRIE 0002B3                                       _U1ERRIR 0002B2  
                                     _U2ERRIE 0002C6                                       _U2ERRIR 0002C5  
                                ?_Default_ISR 0524                            ?_UART1_Receive_ISR 0524  
                                     _U1RXPPS 000272                                       _U2RXPPS 000274  
                                     _OSCCON1 0000AD                                       _OSCCON3 0000AF  
                                     _IVTLOCK 000459                                     _C1TXQCONL 000150  
                                     i2u62_40 3B30                                       i2u62_41 3B2A  
                                     _OSCTUNE 0000B0                                       i2u62_46 3B32  
                                     i2u63_40 3B52                                       i2u63_41 3B4C  
                                     i2u63_46 3B54                                       i2u64_40 3B76  
                                     i2u64_41 3B70                                       i2u64_46 3B78  
                                     i2u80_48 3C74                                       i2u80_49 3C88  
                                 _C1FIFOCON1H 00015D                                   _C1FIFOCON2H 000169  
                                     i2u79_40 3C6E                                       i2u79_41 3C6A  
                                 _C1FIFOCON1L 00015C                                   _C1FIFOCON2L 000168  
                                 _C1FIFOCON1T 00015F                                   _C1FIFOCON1U 00015E  
                                 _C1FIFOCON2T 00016B                                   _C1FIFOCON2U 00016A  
                                     i2u99_40 3F26                                       i2u99_41 3F22  
                                     _SLRCONA 000403                                       _SLRCONB 00040B  
                                     _SLRCONC 000413                                       _SLRCOND 00041B  
                                     _SLRCONE 000423                           ??_UART1_Receive_ISR 052D  
                   INTERRUPT_Initialize@state 052F                                     ?_tmr0_isr 0524  
                                     __Hparam 0000                        ?_UART2_SetErrorHandler 052F  
                                     __Lparam 0000                      __end_of_UART1_Initialize 3A00  
               ??_UART2_SetTxInterruptHandler 0532                     __end_of_UART1_Receive_ISR 389C  
                                __psmallconst 3700                                     _DLC_BYTES 3701  
               ?_UART2_SetFramingErrorHandler 052F                                       __pcinit 3B8E  
                                     __ramtop 3700                                       __ptext0 3F80  
                                     __ptext1 40AA                                       __ptext2 3FA4  
                                     __ptext3 389C                                       __ptext4 4006  
                                     __ptext5 4014                                       __ptext6 4022  
                                     __ptext7 4030                                       __ptext8 403E  
                                     __ptext9 394E                             _UART2_Receive_ISR 3714  
         fp__UART2_DefaultOverrunErrorHandler 0000      __end_of_UART2_DefaultOverrunErrorHandler 40C8  
          ??_UART2_DefaultOverrunErrorHandler 0529             ?_UART2_DefaultOverrunErrorHandler 0524  
            _UART2_DefaultOverrunErrorHandler 40C6                         _OSCILLATOR_Initialize 3FC6  
                          ?_UART2_Receive_ISR 0524                      ??_PIN_MANAGER_Initialize 052F  
                                     _rxFifos 053E                      __end_of_UART2_Initialize 394E  
                        end_of_initialization 3BF0                           ??_UART2_Receive_ISR 0529  
                      _CAN1_RX_FIFO_ResetInfo 3E82                                   _C1TRECUbits 000136  
         __end_of_UART1_SetTxInterruptHandler 405A                   _UART1_SetTxInterruptHandler 404C  
         __end_of_UART2_SetRxInterruptHandler 4022                   _UART2_SetRxInterruptHandler 4014  
               __end_of_CAN1_OperationModeGet 40AA                 __end_of_CAN1_OperationModeSet 3B20  
                ??_CAN1_RX_FIFO_Configuration 052F                ??_UART1_SetOverrunErrorHandler 0532  
                                  ??_tmr0_isr 0524                                       postdec1 0004E5  
                                     postinc0 0004EE                   ??_UART2_DefaultErrorHandler 0529  
                   __end_of_UART2_Receive_ISR 37D8                           _UART1_RxDataHandler 3F2E  
                    _TMR0_SetInterruptHandler 4092                               _CAN1_Initialize 3BF6  
__end_of_CAN1_RX_FIFO_FilterMaskConfiguration 40C0        ??_CAN1_RX_FIFO_FilterMaskConfiguration 052F  
       ?_CAN1_RX_FIFO_FilterMaskConfiguration 0524          _CAN1_RX_FIFO_FilterMaskConfiguration 40BE  
                        ?_UART1_RxDataHandler 0524                  __end_of_INTERRUPT_Initialize 3DFE  
                               __pidataCOMRAM 40BC                        ?_OSCILLATOR_Initialize 0524  
              ??_UART2_SetFramingErrorHandler 0532                           start_initialization 3B8E  
                     ??_UART1_SetErrorHandler 0532                     _UART2_DefaultErrorHandler 40B0  
                       ??_UART1_RxDataHandler 052D                                    ivt0x8_base 0008  
                               _uart1RxBuffer 0600                                 _uart2RxBuffer 0680  
                               _uart1TxBuffer 0640                   ?_CAN1_TX_FIFO_Configuration 0524  
                               _uart2TxBuffer 06C0                              ??_PMD_Initialize 052F  
                     __end_of_CAN1_Initialize 3C4A                                   __pbssCOMRAM 0532  
                          _UART1_ErrorHandler 0501                     _UART2_FramingErrorHandler 0510  
                    _UART1_RxInterruptHandler 0519                      _UART2_TxInterruptHandler 051C  
                fp__UART1_DefaultErrorHandler 0000                       ??_UART2_SetErrorHandler 0532  
          __end_of_CAN1_RX_FIFO_Configuration 4006                    _CAN1_RX_FIFO_Configuration 3FF2  
                ?_UART1_SetRxInterruptHandler 052F                         _TMR0_InterruptHandler 0513  
                      _PIN_MANAGER_Initialize 3A00                             ?_UART1_Initialize 0524  
        __end_of_UART1_SetFramingErrorHandler 4084                  _UART1_SetFramingErrorHandler 4076  
                                    _C1FIFOBA 00014C                            ??_UART1_Initialize 0532  
                            _uart1RxLastError 0532                                   __smallconst 3700  
         fp__UART1_DefaultOverrunErrorHandler 0000      __end_of_UART1_DefaultOverrunErrorHandler 40CC  
          ??_UART1_DefaultOverrunErrorHandler 052D             ?_UART1_DefaultOverrunErrorHandler 0524  
            _UART1_DefaultOverrunErrorHandler 40CA                                    _C1CONHbits 000101  
            CAN1_OperationModeSet@requestMode 0531                                      _CANRXPPS 00023D  
                                  _C1CONTbits 000103                                    _C1CONUbits 000102  
                           ?_UART2_Initialize 0524                       ?_CAN1_RX_FIFO_ResetInfo 0524  
                                 _U1ERRIRbits 0002B2                                    _C1INTHbits 00011D  
                          ??_UART2_Initialize 0532                          _INTERRUPT_Initialize 3DB8  
                                  _C1INTTbits 00011F                              _uart2RxLastError 0538  
                           ??_TMR0_Initialize 0532                                   _U2ERRIRbits 0002C5  
       UART1_SetErrorHandler@interruptHandler 052F         UART2_SetErrorHandler@interruptHandler 052F  
                                    _LATBbits 0004BF                                      _IPR3bits 000365  
                                    _IPR4bits 000366                                      _PIE3bits 0004A1  
                                    _PIE4bits 0004A2                                      _IPR8bits 00036A  
                                    _PIE8bits 0004A6                                      _IVTBASEH 00045E  
                                    _IVTBASEL 00045D                                      _IVTBASEU 00045F  
                                    i2u100_40 3F50                                      i2u100_41 3F4C  
               ??_UART1_SetRxInterruptHandler 0532                                      i2u131_40 3E50  
                                    i2u130_48 37BA                                      i2u123_40 3E0E  
                                    i2u131_41 3E4C                                      i2u130_49 37CE  
                                    i2u123_41 3E0A                                      i2u132_40 3E74  
                                    i2u124_40 3E32                                      i2u132_41 3E70  
                                    i2u124_41 3E2E                                      i2u133_40 37F8  
                                    i2u125_40 3734                                      i2u133_41 37F4  
                                    i2u125_41 3730                                      i2u135_40 3832  
                                    i2u134_48 380E                                      i2u127_40 376E  
                                    i2u126_48 374A                                      i2u135_41 382E  
                                    i2u134_49 3822                                      i2u127_41 376A  
                                    i2u126_49 375E                                      i2u137_40 3878  
                                    i2u136_48 3848                                      i2u129_40 37B4  
                                    i2u128_48 3784                                      i2u153_40 3CB8  
                                    i2u137_41 3874                                      i2u136_49 385C  
                                    i2u129_41 37B0                                      i2u128_49 3798  
                                    i2u153_41 3CB4                                      i2u162_40 3D48  
                                    i2u162_41 3D44                                      i2u138_48 387E  
                                    i2u155_40 3D00                                      i2u154_48 3CBE  
                                    i2u138_49 3892                                      i2u155_41 3CFC  
                                    i2u154_49 3CD2                                      i2u164_40 3D90  
                                    i2u163_48 3D4E                                      i2u164_41 3D8C  
                                    i2u163_49 3D62                                      i2u156_48 3D06  
                  ??_TMR0_SetInterruptHandler 0532                                      i2u156_49 3D1A  
                                    i2u165_48 3D96                                      i2u165_49 3DAA  
                                   _rxMsgData 0700                                      _PIR3bits 0004B1  
                                    _TMR0_ISR 3C4C                    __end_of_UART1_Transmit_ISR 3E82  
               ?_UART1_SetFramingErrorHandler 052F                              ?_CAN1_Initialize 0524  
                         _UART2_RxDataHandler 3F04                __end_of_CAN1_RX_FIFO_ResetInfo 3EAE  
                          _UART2_ErrorHandler 050A                                   _INTCON0bits 0004D6  
                       ?_INTERRUPT_Initialize 0524                          fp__UART1_Receive_ISR 0000  
                        ?_UART2_RxDataHandler 0524                        _uart1TxBufferRemaining 0522  
         __end_of_UART2_SetTxInterruptHandler 4014                   _UART2_SetTxInterruptHandler 4006  
                                _uart1RxCount 0533                                  _uart2RxCount 0539  
                                    __Hrparam 0000                         _CAN1_OperationModeGet 40A0  
                                    __Lrparam 0000                         _CAN1_OperationModeSet 3A98  
                     ??_OSCILLATOR_Initialize 052F                             ??_TMR0_StartTimer 052F  
                                  _T0CON0bits 00031A                                      __pivt0x8 0008  
                                    __ptext10 404C                                      __ptext11 405A  
                                    __ptext20 3DB8                                      __ptext12 4068  
                                    __ptext21 3BF6                                      __ptext13 4076  
                                    __ptext30 40C0                                      __ptext22 3FDE  
                                    __ptext14 4084                                      __ptext31 3B20  
                                    __ptext23 3E82                                      __ptext15 3EDA  
                                    __ptext40 3F04                                      __ptext32 40C4  
                                    __ptext24 40BE                                      __ptext16 4092  
                                    __ptext41 3D28                                      __ptext33 3C98  
                                    __ptext25 3FF2                                      __ptext17 3F58  
                                    __ptext42 3E40                                      __ptext34 3DFE  
                                    __ptext26 3A98                                      __ptext18 3A00  
                                    __ptext43 3D70                                      __ptext35 3CE0  
                                    __ptext27 40A0                                      __ptext19 3FC6  
                                    __ptext44 37D8                                      __ptext36 3714  
                                    __ptext28 3EAE                                      __ptext45 40CA  
                                    __ptext37 40C6                                      __ptext29 3C4C  
                                    __ptext46 40CC                                      __ptext38 40C8  
                                    __ptext47 40B6                                      __ptext39 40B0  
                                    __ptext48 3F2E                                      __ptext49 0000  
                 CAN1_OperationModeSet@opMode 052F                 __end_of_UART1_SetErrorHandler 4092  
                        fp__UART2_Receive_ISR 0000                   CAN1_OperationModeSet@status 0530  
                       ??_UART2_RxDataHandler 0529           fp__UART2_DefaultFramingErrorHandler 0000  
    __end_of_UART2_DefaultFramingErrorHandler 40CA            ??_UART2_DefaultFramingErrorHandler 0529  
           ?_UART2_DefaultFramingErrorHandler 0524              _UART2_DefaultFramingErrorHandler 40C8  
        __end_of_TMR0_DefaultInterruptHandler 40C2                  _TMR0_DefaultInterruptHandler 40C0  
                                 _IVTLOCKbits 000459                                      _tmr0_isr 3B20  
                   _UART1_OverrunErrorHandler 0504  UART1_SetOverrunErrorHandler@interruptHandler 052F  
UART2_SetOverrunErrorHandler@interruptHandler 052F                                      isa$xinst 000000  
                  ?_UART1_DefaultErrorHandler 0524                    __end_of_UART2_Transmit_ISR 3E40  
                       fp__UART1_Transmit_ISR 0000                                 ??_Default_ISR 0527  
              ??_UART1_SetFramingErrorHandler 0532                   __end_of_UART1_RxDataHandler 3F58  
                                 _uart1RxHead 0535                                   _uart2RxHead 053B  
                                 _uart1TxHead 0537                                   _uart1RxTail 0534  
                                 _uart2TxHead 053D                                   _uart2RxTail 053A  
                                 _uart1TxTail 0536                                   _uart2TxTail 053C  
                      ??_INTERRUPT_Initialize 052F          __end_of_UART2_SetOverrunErrorHandler 4030  
                _UART2_SetOverrunErrorHandler 4022                                      intlevel2 0000  
                     ?_PIN_MANAGER_Initialize 0524                   ?_CAN1_RX_FIFO_Configuration 0524  
                      ?_CAN1_OperationModeGet 0524                 __end_of_UART2_SetErrorHandler 404C  
                  ?_CAN1_BitRateConfiguration 0524                        ?_CAN1_OperationModeSet 0524  
                         _uart1RxStatusBuffer 0560               fp__TMR0_DefaultInterruptHandler 0000  
               ?_TMR0_DefaultInterruptHandler 0524  UART1_SetFramingErrorHandler@interruptHandler 052F  
UART2_SetFramingErrorHandler@interruptHandler 052F             __end_of_UART1_DefaultErrorHandler 40BC  
                      _uart2TxBufferRemaining 0523                               _TMR0_Initialize 3EDA  
                    _UART1_TxInterruptHandler 0516                           __end_of_Default_ISR 40C6  
              __end_of_PIN_MANAGER_Initialize 3A98                 ?_UART2_SetOverrunErrorHandler 052F  
                fp__UART2_DefaultErrorHandler 0000                  ?_UART1_SetTxInterruptHandler 052F  
                ?_UART2_SetRxInterruptHandler 052F             __end_of_CAN1_BitRateConfiguration 3EDA  
